
build/output.elf:     file format elf32-littlearm


Disassembly of section .init:

00008000 <_start>:
    8000:	ea0fe437 	b	4010e4 <main>

00008004 <_StartScreen>:
    8004:	ea0fe833 	b	4020d8 <StartScreen>

00008008 <_UpdateSprites>:
    8008:	ea0fe88c 	b	402240 <UpdateSprites>

0000800c <_ButtonFunctions>:
    800c:	ea0fea90 	b	402a54 <BPress>

00008010 <_GameLoop>:
    8010:	ea0feb57 	b	402d74 <GameLoop>

Disassembly of section .text:

004010e4 <main>:
  4010e4:	e3a0d902 	mov	sp, #32768	; 0x8000
  4010e8:	eb000187 	bl	40170c <EnableJTAG>
  4010ec:	e59f0048 	ldr	r0, [pc, #72]	; 40113c <hang+0x4>
  4010f0:	e5901000 	ldr	r1, [r0]
  4010f4:	e3811001 	orr	r1, r1, #1
  4010f8:	e5801000 	str	r1, [r0]
  4010fc:	e59f003c 	ldr	r0, [pc, #60]	; 401140 <hang+0x8>
  401100:	e3a01002 	mov	r1, #2
  401104:	e5801000 	str	r1, [r0]
  401108:	e59f0034 	ldr	r0, [pc, #52]	; 401144 <hang+0xc>
  40110c:	e5901000 	ldr	r1, [r0]
  401110:	e3811002 	orr	r1, r1, #2
  401114:	e5801000 	str	r1, [r0]
  401118:	e10f0000 	mrs	r0, CPSR
  40111c:	e3c00080 	bic	r0, r0, #128	; 0x80
  401120:	e121f000 	msr	CPSR_c, r0
  401124:	eb0003ce 	bl	402064 <_InitAll>
  401128:	ebf01bb5 	bl	8004 <_StartScreen>

0040112c <nG>:
  40112c:	eb000199 	bl	401798 <initialscreen>

00401130 <cycle>:
  401130:	ebf01bb6 	bl	8010 <_GameLoop>
  401134:	eafffffd 	b	401130 <cycle>

00401138 <hang>:
  401138:	eafffffe 	b	401138 <hang>
  40113c:	2000b218 	.word	0x2000b218
  401140:	20003000 	.word	0x20003000
  401144:	2000b210 	.word	0x2000b210

00401148 <updateMonsters>:
  401148:	e92d47f0 	push	{r4, r5, r6, r7, r8, r9, sl, lr}
  40114c:	e59f5130 	ldr	r5, [pc, #304]	; 401284 <donel2+0x8>
  401150:	e5955000 	ldr	r5, [r5]
  401154:	e3a06001 	mov	r6, #1
  401158:	e1550006 	cmp	r5, r6
  40115c:	0b000004 	bleq	401174 <updateShell>
  401160:	e3a06002 	mov	r6, #2
  401164:	e1550006 	cmp	r5, r6
  401168:	0b000024 	bleq	401200 <updateDragon>

0040116c <doneMonsters>:
  40116c:	e8bd47f0 	pop	{r4, r5, r6, r7, r8, r9, sl, lr}
  401170:	e12fff1e 	bx	lr

00401174 <updateShell>:
  401174:	e92d47f0 	push	{r4, r5, r6, r7, r8, r9, sl, lr}
  401178:	e59f8108 	ldr	r8, [pc, #264]	; 401288 <donel2+0xc>
  40117c:	e5984000 	ldr	r4, [r8]
  401180:	e5985008 	ldr	r5, [r8, #8]
  401184:	e3550001 	cmp	r5, #1
  401188:	0a00001a 	beq	4011f8 <donel>
  40118c:	e2446005 	sub	r6, r4, #5
  401190:	e3560014 	cmp	r6, #20
  401194:	da000010 	ble	4011dc <destroy>

00401198 <drawL>:
  401198:	e3560000 	cmp	r6, #0
  40119c:	e59f00e4 	ldr	r0, [pc, #228]	; 401288 <donel2+0xc>
  4011a0:	e5900000 	ldr	r0, [r0]
  4011a4:	e59f10dc 	ldr	r1, [pc, #220]	; 401288 <donel2+0xc>
  4011a8:	e5911004 	ldr	r1, [r1, #4]
  4011ac:	eb00024f 	bl	401af0 <clearShell>
  4011b0:	e5886000 	str	r6, [r8]
  4011b4:	e59f00cc 	ldr	r0, [pc, #204]	; 401288 <donel2+0xc>
  4011b8:	e5900000 	ldr	r0, [r0]
  4011bc:	e59f10c4 	ldr	r1, [pc, #196]	; 401288 <donel2+0xc>
  4011c0:	e5911004 	ldr	r1, [r1, #4]
  4011c4:	e59f20bc 	ldr	r2, [pc, #188]	; 401288 <donel2+0xc>
  4011c8:	e5922008 	ldr	r2, [r2, #8]
  4011cc:	e3520001 	cmp	r2, #1
  4011d0:	0a000008 	beq	4011f8 <donel>
  4011d4:	eb0001f4 	bl	4019ac <drawShell>
  4011d8:	ea000006 	b	4011f8 <donel>

004011dc <destroy>:
  4011dc:	e59f00a4 	ldr	r0, [pc, #164]	; 401288 <donel2+0xc>
  4011e0:	e5900000 	ldr	r0, [r0]
  4011e4:	e59f109c 	ldr	r1, [pc, #156]	; 401288 <donel2+0xc>
  4011e8:	e5911004 	ldr	r1, [r1, #4]
  4011ec:	eb00023f 	bl	401af0 <clearShell>
  4011f0:	e3a0a001 	mov	sl, #1
  4011f4:	e588a008 	str	sl, [r8, #8]

004011f8 <donel>:
  4011f8:	e8bd47f0 	pop	{r4, r5, r6, r7, r8, r9, sl, lr}
  4011fc:	e12fff1e 	bx	lr

00401200 <updateDragon>:
  401200:	e92d47f0 	push	{r4, r5, r6, r7, r8, r9, sl, lr}
  401204:	e59f8080 	ldr	r8, [pc, #128]	; 40128c <donel2+0x10>
  401208:	e5984000 	ldr	r4, [r8]
  40120c:	e5989008 	ldr	r9, [r8, #8]
  401210:	e3590000 	cmp	r9, #0
  401214:	0a000006 	beq	401234 <increase>
  401218:	e3590001 	cmp	r9, #1
  40121c:	0affffff 	beq	401220 <decrease>

00401220 <decrease>:
  401220:	e2446005 	sub	r6, r4, #5
  401224:	e3a0a000 	mov	sl, #0
  401228:	e3560f55 	cmp	r6, #340	; 0x154
  40122c:	d588a008 	strle	sl, [r8, #8]
  401230:	ea000005 	b	40124c <drawL2>

00401234 <increase>:
  401234:	e2846005 	add	r6, r4, #5
  401238:	e3a0a001 	mov	sl, #1
  40123c:	e3a05faf 	mov	r5, #700	; 0x2bc
  401240:	e1560005 	cmp	r6, r5
  401244:	a588a008 	strge	sl, [r8, #8]
  401248:	eaffffff 	b	40124c <drawL2>

0040124c <drawL2>:
  40124c:	e3560000 	cmp	r6, #0
  401250:	e59f0034 	ldr	r0, [pc, #52]	; 40128c <donel2+0x10>
  401254:	e5900000 	ldr	r0, [r0]
  401258:	e59f102c 	ldr	r1, [pc, #44]	; 40128c <donel2+0x10>
  40125c:	e5911004 	ldr	r1, [r1, #4]
  401260:	eb000210 	bl	401aa8 <clearDragon>
  401264:	e5886000 	str	r6, [r8]
  401268:	e59f001c 	ldr	r0, [pc, #28]	; 40128c <donel2+0x10>
  40126c:	e5900000 	ldr	r0, [r0]
  401270:	e59f1014 	ldr	r1, [pc, #20]	; 40128c <donel2+0x10>
  401274:	e5911004 	ldr	r1, [r1, #4]
  401278:	eb0001c2 	bl	401988 <drawDragon>

0040127c <donel2>:
  40127c:	e8bd47f0 	pop	{r4, r5, r6, r7, r8, r9, sl, lr}
  401280:	e12fff1e 	bx	lr
  401284:	00009134 	.word	0x00009134
  401288:	00009128 	.word	0x00009128
  40128c:	0000911c 	.word	0x0000911c

00401290 <Detect1>:
  401290:	e92d47f0 	push	{r4, r5, r6, r7, r8, r9, sl, lr}
  401294:	e59f0380 	ldr	r0, [pc, #896]	; 40161c <s1done+0x18>
  401298:	e5904000 	ldr	r4, [r0]
  40129c:	e5905004 	ldr	r5, [r0, #4]
  4012a0:	e2846029 	add	r6, r4, #41	; 0x29
  4012a4:	e2857046 	add	r7, r5, #70	; 0x46
  4012a8:	e284a014 	add	sl, r4, #20

004012ac <Enemy>:
  4012ac:	e59f036c 	ldr	r0, [pc, #876]	; 401620 <s1done+0x1c>
  4012b0:	e5900008 	ldr	r0, [r0, #8]
  4012b4:	e3500001 	cmp	r0, #1
  4012b8:	0a000020 	beq	401340 <Block1>
  4012bc:	e59f035c 	ldr	r0, [pc, #860]	; 401620 <s1done+0x1c>
  4012c0:	e5908000 	ldr	r8, [r0]
  4012c4:	e5909004 	ldr	r9, [r0, #4]
  4012c8:	e2488002 	sub	r8, r8, #2
  4012cc:	e2899002 	add	r9, r9, #2
  4012d0:	e288101f 	add	r1, r8, #31
  4012d4:	e2892034 	add	r2, r9, #52	; 0x34
  4012d8:	e1560008 	cmp	r6, r8
  4012dc:	ba0000c8 	blt	401604 <s1done>
  4012e0:	e1540001 	cmp	r4, r1
  4012e4:	ca000015 	bgt	401340 <Block1>
  4012e8:	e1570009 	cmp	r7, r9
  4012ec:	da000004 	ble	401304 <MK>
  4012f0:	e59f132c 	ldr	r1, [pc, #812]	; 401624 <s1done+0x20>
  4012f4:	e5910000 	ldr	r0, [r1]
  4012f8:	e2400001 	sub	r0, r0, #1
  4012fc:	e5810000 	str	r0, [r1]
  401300:	ea000463 	b	402494 <restart>

00401304 <MK>:
  401304:	e1570009 	cmp	r7, r9
  401308:	ba00000c 	blt	401340 <Block1>
  40130c:	e59f030c 	ldr	r0, [pc, #780]	; 401620 <s1done+0x1c>
  401310:	e3a01001 	mov	r1, #1
  401314:	e5801008 	str	r1, [r0, #8]
  401318:	e59f0300 	ldr	r0, [pc, #768]	; 401620 <s1done+0x1c>
  40131c:	e5901004 	ldr	r1, [r0, #4]
  401320:	e5900000 	ldr	r0, [r0]
  401324:	eb0001f1 	bl	401af0 <clearShell>
  401328:	e59f12f8 	ldr	r1, [pc, #760]	; 401628 <s1done+0x24>
  40132c:	e5910000 	ldr	r0, [r1]
  401330:	e2800064 	add	r0, r0, #100	; 0x64
  401334:	e5810000 	str	r0, [r1]
  401338:	e8bd47f0 	pop	{r4, r5, r6, r7, r8, r9, sl, lr}
  40133c:	e1a0f00e 	mov	pc, lr

00401340 <Block1>:
  401340:	e59f02d4 	ldr	r0, [pc, #724]	; 40161c <s1done+0x18>
  401344:	e5904000 	ldr	r4, [r0]
  401348:	e5905004 	ldr	r5, [r0, #4]
  40134c:	e2846029 	add	r6, r4, #41	; 0x29
  401350:	e2857046 	add	r7, r5, #70	; 0x46
  401354:	e284a014 	add	sl, r4, #20
  401358:	e59f02cc 	ldr	r0, [pc, #716]	; 40162c <s1done+0x28>
  40135c:	e1560000 	cmp	r6, r0
  401360:	ba0000a7 	blt	401604 <s1done>
  401364:	e59f02c4 	ldr	r0, [pc, #708]	; 401630 <s1done+0x2c>
  401368:	e1540000 	cmp	r4, r0
  40136c:	ca000030 	bgt	401434 <Block2>
  401370:	e59f02bc 	ldr	r0, [pc, #700]	; 401634 <s1done+0x30>
  401374:	e5d00000 	ldrb	r0, [r0]
  401378:	e3500001 	cmp	r0, #1
  40137c:	1a0000a0 	bne	401604 <s1done>
  401380:	e59f02b0 	ldr	r0, [pc, #688]	; 401638 <s1done+0x34>
  401384:	e1550000 	cmp	r5, r0
  401388:	aa000011 	bge	4013d4 <Block1Under>
  40138c:	eaffffff 	b	401390 <Block1Above>

00401390 <Block1Above>:
  401390:	eb000134 	bl	401868 <drawMario>
  401394:	e59f0298 	ldr	r0, [pc, #664]	; 401634 <s1done+0x30>
  401398:	e5d00000 	ldrb	r0, [r0]
  40139c:	e3500001 	cmp	r0, #1
  4013a0:	1a00008d 	bne	4015dc <BlockGround>
  4013a4:	e59f0290 	ldr	r0, [pc, #656]	; 40163c <s1done+0x38>
  4013a8:	e1550000 	cmp	r5, r0
  4013ac:	0a00006e 	beq	40156c <BlockBlock>
  4013b0:	e59f0288 	ldr	r0, [pc, #648]	; 401640 <s1done+0x3c>
  4013b4:	e1550000 	cmp	r5, r0
  4013b8:	ba000091 	blt	401604 <s1done>

004013bc <B1EQ>:
  4013bc:	e59f0280 	ldr	r0, [pc, #640]	; 401644 <s1done+0x40>
  4013c0:	e3a01001 	mov	r1, #1
  4013c4:	e5801000 	str	r1, [r0]
  4013c8:	e8bd47f0 	pop	{r4, r5, r6, r7, r8, r9, sl, lr}
  4013cc:	e3a0000d 	mov	r0, #13
  4013d0:	e1a0f00e 	mov	pc, lr

004013d4 <Block1Under>:
  4013d4:	e59fa258 	ldr	sl, [pc, #600]	; 401634 <s1done+0x30>
  4013d8:	e5da0000 	ldrb	r0, [sl]
  4013dc:	e3500000 	cmp	r0, #0
  4013e0:	0a000087 	beq	401604 <s1done>
  4013e4:	e59f024c 	ldr	r0, [pc, #588]	; 401638 <s1done+0x34>
  4013e8:	e1550000 	cmp	r5, r0
  4013ec:	0a000005 	beq	401408 <undernext>
  4013f0:	e59f024c 	ldr	r0, [pc, #588]	; 401644 <s1done+0x40>
  4013f4:	e3a01001 	mov	r1, #1
  4013f8:	e5801000 	str	r1, [r0]
  4013fc:	e8bd47f0 	pop	{r4, r5, r6, r7, r8, r9, sl, lr}
  401400:	e3a00000 	mov	r0, #0
  401404:	e1a0f00e 	mov	pc, lr

00401408 <undernext>:
  401408:	e59f021c 	ldr	r0, [pc, #540]	; 40162c <s1done+0x28>
  40140c:	e3a01e19 	mov	r1, #400	; 0x190
  401410:	eb00019b 	bl	401a84 <clearBox>
  401414:	e59f0218 	ldr	r0, [pc, #536]	; 401634 <s1done+0x30>
  401418:	e3a01000 	mov	r1, #0
  40141c:	e5801000 	str	r1, [r0]
  401420:	e59f0200 	ldr	r0, [pc, #512]	; 401628 <s1done+0x24>
  401424:	e5901000 	ldr	r1, [r0]
  401428:	e2811032 	add	r1, r1, #50	; 0x32
  40142c:	e5801000 	str	r1, [r0]
  401430:	ea000069 	b	4015dc <BlockGround>

00401434 <Block2>:
  401434:	e59f01e0 	ldr	r0, [pc, #480]	; 40161c <s1done+0x18>
  401438:	e5904000 	ldr	r4, [r0]
  40143c:	e5905004 	ldr	r5, [r0, #4]
  401440:	e2846029 	add	r6, r4, #41	; 0x29
  401444:	e2857046 	add	r7, r5, #70	; 0x46
  401448:	e284a014 	add	sl, r4, #20
  40144c:	e59f01dc 	ldr	r0, [pc, #476]	; 401630 <s1done+0x2c>
  401450:	e1560000 	cmp	r6, r0
  401454:	baffffb9 	blt	401340 <Block1>
  401458:	e3a00faf 	mov	r0, #700	; 0x2bc
  40145c:	e1540000 	cmp	r4, r0
  401460:	e59f01e0 	ldr	r0, [pc, #480]	; 401648 <s1done+0x44>
  401464:	e5d00000 	ldrb	r0, [r0]
  401468:	e3500001 	cmp	r0, #1
  40146c:	1a000064 	bne	401604 <s1done>
  401470:	e59f01c0 	ldr	r0, [pc, #448]	; 401638 <s1done+0x34>
  401474:	e1550000 	cmp	r5, r0
  401478:	aa000023 	bge	40150c <Block2Under>
  40147c:	eaffffff 	b	401480 <Block2Above>

00401480 <Block2Above>:
  401480:	e59f01c0 	ldr	r0, [pc, #448]	; 401648 <s1done+0x44>
  401484:	e5d00000 	ldrb	r0, [r0]
  401488:	e3500001 	cmp	r0, #1
  40148c:	1a000052 	bne	4015dc <BlockGround>
  401490:	e59f01b4 	ldr	r0, [pc, #436]	; 40164c <s1done+0x48>
  401494:	e1550000 	cmp	r5, r0
  401498:	0a000033 	beq	40156c <BlockBlock>

0040149c <B2Al>:
  40149c:	e59f0178 	ldr	r0, [pc, #376]	; 40161c <s1done+0x18>
  4014a0:	e5904000 	ldr	r4, [r0]
  4014a4:	e5905004 	ldr	r5, [r0, #4]
  4014a8:	e1a09005 	mov	r9, r5

004014ac <B2ALoop>:
  4014ac:	e289900c 	add	r9, r9, #12
  4014b0:	eb000103 	bl	4018c4 <clearMario>
  4014b4:	e59f0160 	ldr	r0, [pc, #352]	; 40161c <s1done+0x18>
  4014b8:	e5809004 	str	r9, [r0, #4]
  4014bc:	eb0000e9 	bl	401868 <drawMario>
  4014c0:	eb00053e 	bl	4029c0 <_ReadSNES>
  4014c4:	e59f0184 	ldr	r0, [pc, #388]	; 401650 <s1done+0x4c>
  4014c8:	e5d01007 	ldrb	r1, [r0, #7]
  4014cc:	e3510000 	cmp	r1, #0
  4014d0:	0b0005ae 	bleq	402b90 <UpRightPress>
  4014d4:	e59f0174 	ldr	r0, [pc, #372]	; 401650 <s1done+0x4c>
  4014d8:	e5d01006 	ldrb	r1, [r0, #6]
  4014dc:	e3510000 	cmp	r1, #0
  4014e0:	0b0005c8 	bleq	402c08 <UpLeftPress>
  4014e4:	ebffff69 	bl	401290 <Detect1>
  4014e8:	e59f0164 	ldr	r0, [pc, #356]	; 401654 <s1done+0x50>
  4014ec:	e1590000 	cmp	r9, r0
  4014f0:	baffffed 	blt	4014ac <B2ALoop>
  4014f4:	e59f0148 	ldr	r0, [pc, #328]	; 401644 <s1done+0x40>
  4014f8:	e3a01001 	mov	r1, #1
  4014fc:	e5801000 	str	r1, [r0]
  401500:	e8bd47f0 	pop	{r4, r5, r6, r7, r8, r9, sl, lr}
  401504:	e3a0000d 	mov	r0, #13
  401508:	e1a0f00e 	mov	pc, lr

0040150c <Block2Under>:
  40150c:	e59fa134 	ldr	sl, [pc, #308]	; 401648 <s1done+0x44>
  401510:	e5da0000 	ldrb	r0, [sl]
  401514:	e3500000 	cmp	r0, #0
  401518:	0a000039 	beq	401604 <s1done>
  40151c:	e59f0114 	ldr	r0, [pc, #276]	; 401638 <s1done+0x34>
  401520:	e1550000 	cmp	r5, r0
  401524:	0a000005 	beq	401540 <undernext2>
  401528:	e59f0114 	ldr	r0, [pc, #276]	; 401644 <s1done+0x40>
  40152c:	e3a01001 	mov	r1, #1
  401530:	e5801000 	str	r1, [r0]
  401534:	e8bd47f0 	pop	{r4, r5, r6, r7, r8, r9, sl, lr}
  401538:	e3a00000 	mov	r0, #0
  40153c:	e1a0f00e 	mov	pc, lr

00401540 <undernext2>:
  401540:	e59f00e8 	ldr	r0, [pc, #232]	; 401630 <s1done+0x2c>
  401544:	e3a01e19 	mov	r1, #400	; 0x190
  401548:	eb00014d 	bl	401a84 <clearBox>
  40154c:	e59f00f4 	ldr	r0, [pc, #244]	; 401648 <s1done+0x44>
  401550:	e3a01000 	mov	r1, #0
  401554:	e5801000 	str	r1, [r0]
  401558:	e59f00c8 	ldr	r0, [pc, #200]	; 401628 <s1done+0x24>
  40155c:	e5901000 	ldr	r1, [r0]
  401560:	e2811032 	add	r1, r1, #50	; 0x32
  401564:	e5801000 	str	r1, [r0]
  401568:	ea00001b 	b	4015dc <BlockGround>

0040156c <BlockBlock>:
  40156c:	e59f00a8 	ldr	r0, [pc, #168]	; 40161c <s1done+0x18>
  401570:	e5904000 	ldr	r4, [r0]
  401574:	e5905004 	ldr	r5, [r0, #4]
  401578:	e1a09005 	mov	r9, r5

0040157c <B1BLoop>:
  40157c:	e2899018 	add	r9, r9, #24
  401580:	eb0000cf 	bl	4018c4 <clearMario>
  401584:	e59f0090 	ldr	r0, [pc, #144]	; 40161c <s1done+0x18>
  401588:	e5809004 	str	r9, [r0, #4]
  40158c:	eb0000b5 	bl	401868 <drawMario>
  401590:	eb00050a 	bl	4029c0 <_ReadSNES>
  401594:	e59f00b4 	ldr	r0, [pc, #180]	; 401650 <s1done+0x4c>
  401598:	e5d01007 	ldrb	r1, [r0, #7]
  40159c:	e3510000 	cmp	r1, #0
  4015a0:	0b00057a 	bleq	402b90 <UpRightPress>
  4015a4:	e59f00a4 	ldr	r0, [pc, #164]	; 401650 <s1done+0x4c>
  4015a8:	e5d01006 	ldrb	r1, [r0, #6]
  4015ac:	e3510000 	cmp	r1, #0
  4015b0:	0b000594 	bleq	402c08 <UpLeftPress>
  4015b4:	ebffff35 	bl	401290 <Detect1>
  4015b8:	e59f0080 	ldr	r0, [pc, #128]	; 401640 <s1done+0x3c>
  4015bc:	e1590000 	cmp	r9, r0
  4015c0:	baffffed 	blt	40157c <B1BLoop>
  4015c4:	e59f0078 	ldr	r0, [pc, #120]	; 401644 <s1done+0x40>
  4015c8:	e3a01001 	mov	r1, #1
  4015cc:	e5801000 	str	r1, [r0]
  4015d0:	e8bd47f0 	pop	{r4, r5, r6, r7, r8, r9, sl, lr}
  4015d4:	e3a0000d 	mov	r0, #13
  4015d8:	e1a0f00e 	mov	pc, lr

004015dc <BlockGround>:
  4015dc:	e59f0038 	ldr	r0, [pc, #56]	; 40161c <s1done+0x18>
  4015e0:	e5904000 	ldr	r4, [r0]
  4015e4:	e5905004 	ldr	r5, [r0, #4]
  4015e8:	e1a09005 	mov	r9, r5
  4015ec:	e59f0050 	ldr	r0, [pc, #80]	; 401644 <s1done+0x40>
  4015f0:	e3a01000 	mov	r1, #0
  4015f4:	e5801000 	str	r1, [r0]
  4015f8:	e8bd47f0 	pop	{r4, r5, r6, r7, r8, r9, sl, lr}
  4015fc:	e3a0000d 	mov	r0, #13
  401600:	e1a0f00e 	mov	pc, lr

00401604 <s1done>:
  401604:	e59f0038 	ldr	r0, [pc, #56]	; 401644 <s1done+0x40>
  401608:	e3a01000 	mov	r1, #0
  40160c:	e5801000 	str	r1, [r0]
  401610:	e8bd47f0 	pop	{r4, r5, r6, r7, r8, r9, sl, lr}
  401614:	e3a00000 	mov	r0, #0
  401618:	e1a0f00e 	mov	pc, lr
  40161c:	00009110 	.word	0x00009110
  401620:	00009128 	.word	0x00009128
  401624:	000091c4 	.word	0x000091c4
  401628:	000091c8 	.word	0x000091c8
  40162c:	00000262 	.word	0x00000262
  401630:	0000028f 	.word	0x0000028f
  401634:	00009090 	.word	0x00009090
  401638:	000001b7 	.word	0x000001b7
  40163c:	0000010f 	.word	0x0000010f
  401640:	0000014b 	.word	0x0000014b
  401644:	000091d0 	.word	0x000091d0
  401648:	00009094 	.word	0x00009094
  40164c:	0000011b 	.word	0x0000011b
  401650:	00009080 	.word	0x00009080
  401654:	0000013f 	.word	0x0000013f

00401658 <_WriteClock>:
  401658:	e92d47f0 	push	{r4, r5, r6, r7, r8, r9, sl, lr}
  40165c:	e1a04001 	mov	r4, r1
  401660:	eaffffff 	b	401664 <WriteClock>

00401664 <WriteClock>:
  401664:	e3a0000b 	mov	r0, #11
  401668:	e59f2018 	ldr	r2, [pc, #24]	; 401688 <WriteClock+0x24>
  40166c:	e3a03001 	mov	r3, #1
  401670:	e1a03013 	lsl	r3, r3, r0
  401674:	e3340000 	teq	r4, #0
  401678:	05823028 	streq	r3, [r2, #40]	; 0x28
  40167c:	1582301c 	strne	r3, [r2, #28]
  401680:	e8bd47f0 	pop	{r4, r5, r6, r7, r8, r9, sl, lr}
  401684:	e12fff1e 	bx	lr
  401688:	3f200000 	.word	0x3f200000

0040168c <InitFrameBuffer>:
  40168c:	e59f2068 	ldr	r2, [pc, #104]	; 4016fc <pointerWaitLoop$+0x1c>
  401690:	e59f3068 	ldr	r3, [pc, #104]	; 401700 <pointerWaitLoop$+0x20>

00401694 <mBoxFullLoop$>:
  401694:	e5920018 	ldr	r0, [r2, #24]
  401698:	e3100102 	tst	r0, #-2147483648	; 0x80000000
  40169c:	1afffffc 	bne	401694 <mBoxFullLoop$>
  4016a0:	e2830101 	add	r0, r3, #1073741824	; 0x40000000
  4016a4:	e3800008 	orr	r0, r0, #8
  4016a8:	e5820020 	str	r0, [r2, #32]

004016ac <mBoxEmptyLoop$>:
  4016ac:	e5920018 	ldr	r0, [r2, #24]
  4016b0:	e3100101 	tst	r0, #1073741824	; 0x40000000
  4016b4:	1afffffc 	bne	4016ac <mBoxEmptyLoop$>
  4016b8:	e5920000 	ldr	r0, [r2]
  4016bc:	e200100f 	and	r1, r0, #15
  4016c0:	e3310008 	teq	r1, #8
  4016c4:	1afffff8 	bne	4016ac <mBoxEmptyLoop$>
  4016c8:	e59f0030 	ldr	r0, [pc, #48]	; 401700 <pointerWaitLoop$+0x20>
  4016cc:	e5901004 	ldr	r1, [r0, #4]
  4016d0:	e3310102 	teq	r1, #-2147483648	; 0x80000000
  4016d4:	0a000001 	beq	4016e0 <pointerWaitLoop$>
  4016d8:	13a00000 	movne	r0, #0
  4016dc:	112fff1e 	bxne	lr

004016e0 <pointerWaitLoop$>:
  4016e0:	e59f001c 	ldr	r0, [pc, #28]	; 401704 <pointerWaitLoop$+0x24>
  4016e4:	e5900000 	ldr	r0, [r0]
  4016e8:	e3300000 	teq	r0, #0
  4016ec:	0afffffb 	beq	4016e0 <pointerWaitLoop$>
  4016f0:	e59f3010 	ldr	r3, [pc, #16]	; 401708 <pointerWaitLoop$+0x28>
  4016f4:	e5830000 	str	r0, [r3]
  4016f8:	e12fff1e 	bx	lr
  4016fc:	3f00b880 	.word	0x3f00b880
  401700:	000090a0 	.word	0x000090a0
  401704:	000090ec 	.word	0x000090ec
  401708:	00009100 	.word	0x00009100

0040170c <EnableJTAG>:
  40170c:	e52de004 	push	{lr}		; (str lr, [sp, #-4]!)
  401710:	e59f0064 	ldr	r0, [pc, #100]	; 40177c <dowaitloop+0xc>
  401714:	e0211001 	eor	r1, r1, r1
  401718:	e5801000 	str	r1, [r0]
  40171c:	eb000012 	bl	40176c <dowait>
  401720:	e59f0058 	ldr	r0, [pc, #88]	; 401780 <dowaitloop+0x10>
  401724:	e59f1058 	ldr	r1, [pc, #88]	; 401784 <dowaitloop+0x14>
  401728:	e5801000 	str	r1, [r0]
  40172c:	eb00000e 	bl	40176c <dowait>
  401730:	e0211001 	eor	r1, r1, r1
  401734:	e5801000 	str	r1, [r0]
  401738:	e59f0048 	ldr	r0, [pc, #72]	; 401788 <dowaitloop+0x18>
  40173c:	e5901000 	ldr	r1, [r0]
  401740:	e3c11a07 	bic	r1, r1, #28672	; 0x7000
  401744:	e3811a02 	orr	r1, r1, #8192	; 0x2000
  401748:	e5801000 	str	r1, [r0]
  40174c:	e59f0038 	ldr	r0, [pc, #56]	; 40178c <dowaitloop+0x1c>
  401750:	e5901000 	ldr	r1, [r0]
  401754:	e59f2034 	ldr	r2, [pc, #52]	; 401790 <dowaitloop+0x20>
  401758:	e1c11002 	bic	r1, r1, r2
  40175c:	e59f2030 	ldr	r2, [pc, #48]	; 401794 <dowaitloop+0x24>
  401760:	e1811002 	orr	r1, r1, r2
  401764:	e5801000 	str	r1, [r0]
  401768:	e49df004 	pop	{pc}		; (ldr pc, [sp], #4)

0040176c <dowait>:
  40176c:	e3a02f4b 	mov	r2, #300	; 0x12c

00401770 <dowaitloop>:
  401770:	e2522001 	subs	r2, r2, #1
  401774:	1afffffd 	bne	401770 <dowaitloop>
  401778:	e12fff1e 	bx	lr
  40177c:	3f200094 	.word	0x3f200094
  401780:	3f200098 	.word	0x3f200098
  401784:	0bc00010 	.word	0x0bc00010
  401788:	3f200000 	.word	0x3f200000
  40178c:	3f200008 	.word	0x3f200008
  401790:	00e3ffc0 	.word	0x00e3ffc0
  401794:	0061b6c0 	.word	0x0061b6c0

00401798 <initialscreen>:
  401798:	e52de004 	push	{lr}		; (str lr, [sp, #-4]!)
  40179c:	eb000022 	bl	40182c <initializeBackground>
  4017a0:	eb000030 	bl	401868 <drawMario>
  4017a4:	e59f17fc 	ldr	r1, [pc, #2044]	; 401fa8 <clear2draw1+0xcc>
  4017a8:	e3a02000 	mov	r2, #0
  4017ac:	e5812000 	str	r2, [r1]
  4017b0:	e3a00064 	mov	r0, #100	; 0x64
  4017b4:	e3a01064 	mov	r1, #100	; 0x64
  4017b8:	eb00004e 	bl	4018f8 <drawCloud>
  4017bc:	e3a00f69 	mov	r0, #420	; 0x1a4
  4017c0:	e3a01014 	mov	r1, #20
  4017c4:	eb00004b 	bl	4018f8 <drawCloud>
  4017c8:	e59f07dc 	ldr	r0, [pc, #2012]	; 401fac <clear2draw1+0xd0>
  4017cc:	e3a0101e 	mov	r1, #30
  4017d0:	eb000048 	bl	4018f8 <drawCloud>
  4017d4:	e59f07d4 	ldr	r0, [pc, #2004]	; 401fb0 <clear2draw1+0xd4>
  4017d8:	e5900000 	ldr	r0, [r0]
  4017dc:	e59f17cc 	ldr	r1, [pc, #1996]	; 401fb0 <clear2draw1+0xd4>
  4017e0:	e5911004 	ldr	r1, [r1, #4]
  4017e4:	eb00004c 	bl	40191c <drawBlock>
  4017e8:	e59f07c4 	ldr	r0, [pc, #1988]	; 401fb4 <clear2draw1+0xd8>
  4017ec:	e5900000 	ldr	r0, [r0]
  4017f0:	e59f17bc 	ldr	r1, [pc, #1980]	; 401fb4 <clear2draw1+0xd8>
  4017f4:	e5911004 	ldr	r1, [r1, #4]
  4017f8:	eb000050 	bl	401940 <drawCoinBlock>
  4017fc:	e59f07b4 	ldr	r0, [pc, #1972]	; 401fb8 <clear2draw1+0xdc>
  401800:	e5900000 	ldr	r0, [r0]
  401804:	e59f17ac 	ldr	r1, [pc, #1964]	; 401fb8 <clear2draw1+0xdc>
  401808:	e5911004 	ldr	r1, [r1, #4]
  40180c:	eb000042 	bl	40191c <drawBlock>
  401810:	e59f07a4 	ldr	r0, [pc, #1956]	; 401fbc <clear2draw1+0xe0>
  401814:	e5900000 	ldr	r0, [r0]
  401818:	e59f179c 	ldr	r1, [pc, #1948]	; 401fbc <clear2draw1+0xe0>
  40181c:	e5911004 	ldr	r1, [r1, #4]
  401820:	eb000061 	bl	4019ac <drawShell>
  401824:	e49de004 	pop	{lr}		; (ldr lr, [sp], #4)
  401828:	e1a0f00e 	mov	pc, lr

0040182c <initializeBackground>:
  40182c:	e92d4180 	push	{r7, r8, lr}
  401830:	e3a00000 	mov	r0, #0
  401834:	e3a01000 	mov	r1, #0
  401838:	e59f2780 	ldr	r2, [pc, #1920]	; 401fc0 <clear2draw1+0xe4>
  40183c:	e3a07b01 	mov	r7, #1024	; 0x400
  401840:	e3a08c03 	mov	r8, #768	; 0x300
  401844:	eb0000df 	bl	401bc8 <drawPicture>
  401848:	e3a00000 	mov	r0, #0
  40184c:	e59f1770 	ldr	r1, [pc, #1904]	; 401fc4 <clear2draw1+0xe8>
  401850:	e59f2770 	ldr	r2, [pc, #1904]	; 401fc8 <clear2draw1+0xec>
  401854:	e3a07b01 	mov	r7, #1024	; 0x400
  401858:	e3a08c03 	mov	r8, #768	; 0x300
  40185c:	eb0000d9 	bl	401bc8 <drawPicture>
  401860:	e8bd4180 	pop	{r7, r8, lr}
  401864:	e1a0f00e 	mov	pc, lr

00401868 <drawMario>:
  401868:	e92d4780 	push	{r7, r8, r9, sl, lr}
  40186c:	e59f0758 	ldr	r0, [pc, #1880]	; 401fcc <clear2draw1+0xf0>
  401870:	e5900000 	ldr	r0, [r0]
  401874:	e59f1750 	ldr	r1, [pc, #1872]	; 401fcc <clear2draw1+0xf0>
  401878:	e5911004 	ldr	r1, [r1, #4]
  40187c:	e59f9748 	ldr	r9, [pc, #1864]	; 401fcc <clear2draw1+0xf0>
  401880:	e5999008 	ldr	r9, [r9, #8]
  401884:	e3590001 	cmp	r9, #1
  401888:	0a000002 	beq	401898 <running2>
  40188c:	e59f273c 	ldr	r2, [pc, #1852]	; 401fd0 <clear2draw1+0xf4>
  401890:	e3a0a001 	mov	sl, #1
  401894:	ea000001 	b	4018a0 <SkipOtherMario>

00401898 <running2>:
  401898:	e59f2734 	ldr	r2, [pc, #1844]	; 401fd4 <clear2draw1+0xf8>
  40189c:	e3a0a000 	mov	sl, #0

004018a0 <SkipOtherMario>:
  4018a0:	e59f9724 	ldr	r9, [pc, #1828]	; 401fcc <clear2draw1+0xf0>
  4018a4:	e589a008 	str	sl, [r9, #8]
  4018a8:	e3a07029 	mov	r7, #41	; 0x29
  4018ac:	e0877000 	add	r7, r7, r0
  4018b0:	e3a08046 	mov	r8, #70	; 0x46
  4018b4:	e0888001 	add	r8, r8, r1
  4018b8:	eb0000c2 	bl	401bc8 <drawPicture>
  4018bc:	e8bd4780 	pop	{r7, r8, r9, sl, lr}
  4018c0:	e1a0f00e 	mov	pc, lr

004018c4 <clearMario>:
  4018c4:	e92d4180 	push	{r7, r8, lr}
  4018c8:	e59f06fc 	ldr	r0, [pc, #1788]	; 401fcc <clear2draw1+0xf0>
  4018cc:	e5900000 	ldr	r0, [r0]
  4018d0:	e59f16f4 	ldr	r1, [pc, #1780]	; 401fcc <clear2draw1+0xf0>
  4018d4:	e5911004 	ldr	r1, [r1, #4]
  4018d8:	e59f26f8 	ldr	r2, [pc, #1784]	; 401fd8 <clear2draw1+0xfc>
  4018dc:	e3a07029 	mov	r7, #41	; 0x29
  4018e0:	e0877000 	add	r7, r7, r0
  4018e4:	e3a08046 	mov	r8, #70	; 0x46
  4018e8:	e0888001 	add	r8, r8, r1
  4018ec:	eb0000b5 	bl	401bc8 <drawPicture>
  4018f0:	e8bd4180 	pop	{r7, r8, lr}
  4018f4:	e1a0f00e 	mov	pc, lr

004018f8 <drawCloud>:
  4018f8:	e92d4180 	push	{r7, r8, lr}
  4018fc:	e59f26d8 	ldr	r2, [pc, #1752]	; 401fdc <clear2draw1+0x100>
  401900:	e3a07086 	mov	r7, #134	; 0x86
  401904:	e0877000 	add	r7, r7, r0
  401908:	e3a08064 	mov	r8, #100	; 0x64
  40190c:	e0888001 	add	r8, r8, r1
  401910:	eb0000ac 	bl	401bc8 <drawPicture>
  401914:	e8bd4180 	pop	{r7, r8, lr}
  401918:	e1a0f00e 	mov	pc, lr

0040191c <drawBlock>:
  40191c:	e92d4180 	push	{r7, r8, lr}
  401920:	e59f26b8 	ldr	r2, [pc, #1720]	; 401fe0 <clear2draw1+0x104>
  401924:	e3a0702d 	mov	r7, #45	; 0x2d
  401928:	e0877000 	add	r7, r7, r0
  40192c:	e3a0802d 	mov	r8, #45	; 0x2d
  401930:	e0888001 	add	r8, r8, r1
  401934:	eb0000a3 	bl	401bc8 <drawPicture>
  401938:	e8bd4180 	pop	{r7, r8, lr}
  40193c:	e1a0f00e 	mov	pc, lr

00401940 <drawCoinBlock>:
  401940:	e92d4180 	push	{r7, r8, lr}
  401944:	e59f2698 	ldr	r2, [pc, #1688]	; 401fe4 <clear2draw1+0x108>
  401948:	e3a0702d 	mov	r7, #45	; 0x2d
  40194c:	e0877000 	add	r7, r7, r0
  401950:	e3a0802d 	mov	r8, #45	; 0x2d
  401954:	e0888001 	add	r8, r8, r1
  401958:	eb00009a 	bl	401bc8 <drawPicture>
  40195c:	e8bd4180 	pop	{r7, r8, lr}
  401960:	e1a0f00e 	mov	pc, lr

00401964 <drawPipe>:
  401964:	e92d4180 	push	{r7, r8, lr}
  401968:	e59f2678 	ldr	r2, [pc, #1656]	; 401fe8 <clear2draw1+0x10c>
  40196c:	e3a07053 	mov	r7, #83	; 0x53
  401970:	e0877000 	add	r7, r7, r0
  401974:	e3a08055 	mov	r8, #85	; 0x55
  401978:	e0888001 	add	r8, r8, r1
  40197c:	eb000091 	bl	401bc8 <drawPicture>
  401980:	e8bd4180 	pop	{r7, r8, lr}
  401984:	e1a0f00e 	mov	pc, lr

00401988 <drawDragon>:
  401988:	e92d4180 	push	{r7, r8, lr}
  40198c:	e59f2658 	ldr	r2, [pc, #1624]	; 401fec <clear2draw1+0x110>
  401990:	e3a07027 	mov	r7, #39	; 0x27
  401994:	e0877000 	add	r7, r7, r0
  401998:	e3a0803c 	mov	r8, #60	; 0x3c
  40199c:	e0888001 	add	r8, r8, r1
  4019a0:	eb000088 	bl	401bc8 <drawPicture>
  4019a4:	e8bd4180 	pop	{r7, r8, lr}
  4019a8:	e1a0f00e 	mov	pc, lr

004019ac <drawShell>:
  4019ac:	e92d4180 	push	{r7, r8, lr}
  4019b0:	e59f2638 	ldr	r2, [pc, #1592]	; 401ff0 <clear2draw1+0x114>
  4019b4:	e3a0701f 	mov	r7, #31
  4019b8:	e0877000 	add	r7, r7, r0
  4019bc:	e3a08032 	mov	r8, #50	; 0x32
  4019c0:	e0888001 	add	r8, r8, r1
  4019c4:	eb00007f 	bl	401bc8 <drawPicture>
  4019c8:	e8bd4180 	pop	{r7, r8, lr}
  4019cc:	e1a0f00e 	mov	pc, lr

004019d0 <drawCastle>:
  4019d0:	e92d4180 	push	{r7, r8, lr}
  4019d4:	e59f2618 	ldr	r2, [pc, #1560]	; 401ff4 <clear2draw1+0x118>
  4019d8:	e59f7618 	ldr	r7, [pc, #1560]	; 401ff8 <clear2draw1+0x11c>
  4019dc:	e0877000 	add	r7, r7, r0
  4019e0:	e59f8610 	ldr	r8, [pc, #1552]	; 401ff8 <clear2draw1+0x11c>
  4019e4:	e0888001 	add	r8, r8, r1
  4019e8:	eb000076 	bl	401bc8 <drawPicture>
  4019ec:	e8bd4180 	pop	{r7, r8, lr}
  4019f0:	e1a0f00e 	mov	pc, lr

004019f4 <drawPit>:
  4019f4:	e92d4180 	push	{r7, r8, lr}
  4019f8:	e59f25fc 	ldr	r2, [pc, #1532]	; 401ffc <clear2draw1+0x120>
  4019fc:	e3a0707e 	mov	r7, #126	; 0x7e
  401a00:	e0877000 	add	r7, r7, r0
  401a04:	e3a080d3 	mov	r8, #211	; 0xd3
  401a08:	e0888001 	add	r8, r8, r1
  401a0c:	eb00006d 	bl	401bc8 <drawPicture>
  401a10:	e8bd4180 	pop	{r7, r8, lr}
  401a14:	e1a0f00e 	mov	pc, lr

00401a18 <drawBowser>:
  401a18:	e92d4180 	push	{r7, r8, lr}
  401a1c:	e59f25dc 	ldr	r2, [pc, #1500]	; 402000 <clear2draw1+0x124>
  401a20:	e3a07045 	mov	r7, #69	; 0x45
  401a24:	e0877000 	add	r7, r7, r0
  401a28:	e3a08068 	mov	r8, #104	; 0x68
  401a2c:	e0888001 	add	r8, r8, r1
  401a30:	eb000064 	bl	401bc8 <drawPicture>
  401a34:	e8bd4180 	pop	{r7, r8, lr}
  401a38:	e1a0f00e 	mov	pc, lr

00401a3c <clearBowser>:
  401a3c:	e92d4180 	push	{r7, r8, lr}
  401a40:	e59f25bc 	ldr	r2, [pc, #1468]	; 402004 <clear2draw1+0x128>
  401a44:	e3a07045 	mov	r7, #69	; 0x45
  401a48:	e0877000 	add	r7, r7, r0
  401a4c:	e3a08068 	mov	r8, #104	; 0x68
  401a50:	e0888001 	add	r8, r8, r1
  401a54:	eb00005b 	bl	401bc8 <drawPicture>
  401a58:	e8bd4180 	pop	{r7, r8, lr}
  401a5c:	e1a0f00e 	mov	pc, lr

00401a60 <clearCastle>:
  401a60:	e92d4180 	push	{r7, r8, lr}
  401a64:	e59f259c 	ldr	r2, [pc, #1436]	; 402008 <clear2draw1+0x12c>
  401a68:	e3a07045 	mov	r7, #69	; 0x45
  401a6c:	e0877000 	add	r7, r7, r0
  401a70:	e3a08068 	mov	r8, #104	; 0x68
  401a74:	e0888001 	add	r8, r8, r1
  401a78:	eb000052 	bl	401bc8 <drawPicture>
  401a7c:	e8bd4180 	pop	{r7, r8, lr}
  401a80:	e1a0f00e 	mov	pc, lr

00401a84 <clearBox>:
  401a84:	e92d4180 	push	{r7, r8, lr}
  401a88:	e59f257c 	ldr	r2, [pc, #1404]	; 40200c <clear2draw1+0x130>
  401a8c:	e3a0702d 	mov	r7, #45	; 0x2d
  401a90:	e0877000 	add	r7, r7, r0
  401a94:	e3a0802d 	mov	r8, #45	; 0x2d
  401a98:	e0888001 	add	r8, r8, r1
  401a9c:	eb000049 	bl	401bc8 <drawPicture>
  401aa0:	e8bd4180 	pop	{r7, r8, lr}
  401aa4:	e1a0f00e 	mov	pc, lr

00401aa8 <clearDragon>:
  401aa8:	e92d4180 	push	{r7, r8, lr}
  401aac:	e59f255c 	ldr	r2, [pc, #1372]	; 402010 <clear2draw1+0x134>
  401ab0:	e3a07027 	mov	r7, #39	; 0x27
  401ab4:	e0877000 	add	r7, r7, r0
  401ab8:	e3a0803c 	mov	r8, #60	; 0x3c
  401abc:	e0888001 	add	r8, r8, r1
  401ac0:	eb000040 	bl	401bc8 <drawPicture>
  401ac4:	e8bd4180 	pop	{r7, r8, lr}
  401ac8:	e1a0f00e 	mov	pc, lr

00401acc <clearPipe>:
  401acc:	e92d4180 	push	{r7, r8, lr}
  401ad0:	e59f253c 	ldr	r2, [pc, #1340]	; 402014 <clear2draw1+0x138>
  401ad4:	e3a07053 	mov	r7, #83	; 0x53
  401ad8:	e0877000 	add	r7, r7, r0
  401adc:	e3a08055 	mov	r8, #85	; 0x55
  401ae0:	e0888001 	add	r8, r8, r1
  401ae4:	eb000037 	bl	401bc8 <drawPicture>
  401ae8:	e8bd4180 	pop	{r7, r8, lr}
  401aec:	e1a0f00e 	mov	pc, lr

00401af0 <clearShell>:
  401af0:	e92d4180 	push	{r7, r8, lr}
  401af4:	e59f251c 	ldr	r2, [pc, #1308]	; 402018 <clear2draw1+0x13c>
  401af8:	e3a0701f 	mov	r7, #31
  401afc:	e0877000 	add	r7, r7, r0
  401b00:	e3a08032 	mov	r8, #50	; 0x32
  401b04:	e0888001 	add	r8, r8, r1
  401b08:	eb00002e 	bl	401bc8 <drawPicture>
  401b0c:	e8bd4180 	pop	{r7, r8, lr}
  401b10:	e1a0f00e 	mov	pc, lr

00401b14 <drawselectCoin>:
  401b14:	e92d4180 	push	{r7, r8, lr}
  401b18:	e59f24fc 	ldr	r2, [pc, #1276]	; 40201c <clear2draw1+0x140>
  401b1c:	e3a07029 	mov	r7, #41	; 0x29
  401b20:	e0877000 	add	r7, r7, r0
  401b24:	e3a0803f 	mov	r8, #63	; 0x3f
  401b28:	e0888001 	add	r8, r8, r1
  401b2c:	eb000025 	bl	401bc8 <drawPicture>
  401b30:	e8bd4180 	pop	{r7, r8, lr}
  401b34:	e1a0f00e 	mov	pc, lr

00401b38 <clearselectCoin>:
  401b38:	e92d4180 	push	{r7, r8, lr}
  401b3c:	e59f24dc 	ldr	r2, [pc, #1244]	; 402020 <clear2draw1+0x144>
  401b40:	e3a07029 	mov	r7, #41	; 0x29
  401b44:	e0877000 	add	r7, r7, r0
  401b48:	e3a0803f 	mov	r8, #63	; 0x3f
  401b4c:	e0888001 	add	r8, r8, r1
  401b50:	eb00001c 	bl	401bc8 <drawPicture>
  401b54:	e8bd4180 	pop	{r7, r8, lr}
  401b58:	e1a0f00e 	mov	pc, lr

00401b5c <drawPauseSelectCoin>:
  401b5c:	e92d4180 	push	{r7, r8, lr}
  401b60:	e59f24bc 	ldr	r2, [pc, #1212]	; 402024 <clear2draw1+0x148>
  401b64:	e3a07012 	mov	r7, #18
  401b68:	e0877000 	add	r7, r7, r0
  401b6c:	e3a0801c 	mov	r8, #28
  401b70:	e0888001 	add	r8, r8, r1
  401b74:	eb000013 	bl	401bc8 <drawPicture>
  401b78:	e8bd4180 	pop	{r7, r8, lr}
  401b7c:	e1a0f00e 	mov	pc, lr

00401b80 <clearPauseSelectCoinGreen>:
  401b80:	e92d4180 	push	{r7, r8, lr}
  401b84:	e59f249c 	ldr	r2, [pc, #1180]	; 402028 <clear2draw1+0x14c>
  401b88:	e3a07012 	mov	r7, #18
  401b8c:	e0877000 	add	r7, r7, r0
  401b90:	e3a0801c 	mov	r8, #28
  401b94:	e0888001 	add	r8, r8, r1
  401b98:	eb00000a 	bl	401bc8 <drawPicture>
  401b9c:	e8bd4180 	pop	{r7, r8, lr}
  401ba0:	e1a0f00e 	mov	pc, lr

00401ba4 <clearPauseSelectCoinBlue>:
  401ba4:	e92d4180 	push	{r7, r8, lr}
  401ba8:	e59f247c 	ldr	r2, [pc, #1148]	; 40202c <clear2draw1+0x150>
  401bac:	e3a07012 	mov	r7, #18
  401bb0:	e0877000 	add	r7, r7, r0
  401bb4:	e3a0801c 	mov	r8, #28
  401bb8:	e0888001 	add	r8, r8, r1
  401bbc:	eb000001 	bl	401bc8 <drawPicture>
  401bc0:	e8bd4180 	pop	{r7, r8, lr}
  401bc4:	e1a0f00e 	mov	pc, lr

00401bc8 <drawPicture>:
  401bc8:	e92d47f0 	push	{r4, r5, r6, r7, r8, r9, sl, lr}
  401bcc:	e1a04000 	mov	r4, r0
  401bd0:	e1a0a004 	mov	sl, r4
  401bd4:	e1a05001 	mov	r5, r1
  401bd8:	e1a06002 	mov	r6, r2
  401bdc:	e1a07007 	mov	r7, r7
  401be0:	e1a08008 	mov	r8, r8

00401be4 <drawPictureLoop>:
  401be4:	e1a00004 	mov	r0, r4
  401be8:	e1a01005 	mov	r1, r5
  401bec:	e0d620b2 	ldrh	r2, [r6], #2
  401bf0:	e59f9438 	ldr	r9, [pc, #1080]	; 402030 <clear2draw1+0x154>
  401bf4:	e1520009 	cmp	r2, r9
  401bf8:	0a000000 	beq	401c00 <skip>
  401bfc:	eb000008 	bl	401c24 <DrawPixel>

00401c00 <skip>:
  401c00:	e2844001 	add	r4, r4, #1
  401c04:	e1540007 	cmp	r4, r7
  401c08:	bafffff5 	blt	401be4 <drawPictureLoop>
  401c0c:	e1a0400a 	mov	r4, sl
  401c10:	e2855001 	add	r5, r5, #1
  401c14:	e1550008 	cmp	r5, r8
  401c18:	bafffff1 	blt	401be4 <drawPictureLoop>
  401c1c:	e8bd47f0 	pop	{r4, r5, r6, r7, r8, r9, sl, lr}
  401c20:	e1a0f00e 	mov	pc, lr

00401c24 <DrawPixel>:
  401c24:	e52d4004 	push	{r4}		; (str r4, [sp, #-4]!)
  401c28:	e0804501 	add	r4, r0, r1, lsl #10
  401c2c:	e1a04084 	lsl	r4, r4, #1
  401c30:	e59f03fc 	ldr	r0, [pc, #1020]	; 402034 <clear2draw1+0x158>
  401c34:	e5900000 	ldr	r0, [r0]
  401c38:	e18020b4 	strh	r2, [r0, r4]
  401c3c:	e49d4004 	pop	{r4}		; (ldr r4, [sp], #4)
  401c40:	e12fff1e 	bx	lr

00401c44 <updateScreenRight>:
  401c44:	e92d4070 	push	{r4, r5, r6, lr}
  401c48:	e59f43e8 	ldr	r4, [pc, #1000]	; 402038 <clear2draw1+0x15c>
  401c4c:	e5944000 	ldr	r4, [r4]
  401c50:	e3540001 	cmp	r4, #1
  401c54:	0b00000c 	bleq	401c8c <clear1draw2>
  401c58:	e3540002 	cmp	r4, #2
  401c5c:	0b000025 	bleq	401cf8 <clear2draw3>
  401c60:	e8bd4070 	pop	{r4, r5, r6, lr}
  401c64:	e1a0f00e 	mov	pc, lr

00401c68 <updateScreenLeft>:
  401c68:	e92d4070 	push	{r4, r5, r6, lr}
  401c6c:	e59f43c4 	ldr	r4, [pc, #964]	; 402038 <clear2draw1+0x15c>
  401c70:	e5944000 	ldr	r4, [r4]
  401c74:	e3540003 	cmp	r4, #3
  401c78:	0b000076 	bleq	401e58 <clear3draw2>
  401c7c:	e3540002 	cmp	r4, #2
  401c80:	0b000095 	bleq	401edc <clear2draw1>
  401c84:	e8bd4070 	pop	{r4, r5, r6, lr}
  401c88:	e1a0f00e 	mov	pc, lr

00401c8c <clear1draw2>:
  401c8c:	e52de004 	push	{lr}		; (str lr, [sp, #-4]!)
  401c90:	e59f0318 	ldr	r0, [pc, #792]	; 401fb0 <clear2draw1+0xd4>
  401c94:	e5900000 	ldr	r0, [r0]
  401c98:	e59f1310 	ldr	r1, [pc, #784]	; 401fb0 <clear2draw1+0xd4>
  401c9c:	e5911004 	ldr	r1, [r1, #4]
  401ca0:	ebffff77 	bl	401a84 <clearBox>
  401ca4:	e59f0308 	ldr	r0, [pc, #776]	; 401fb4 <clear2draw1+0xd8>
  401ca8:	e5900000 	ldr	r0, [r0]
  401cac:	e59f1300 	ldr	r1, [pc, #768]	; 401fb4 <clear2draw1+0xd8>
  401cb0:	e5911004 	ldr	r1, [r1, #4]
  401cb4:	ebffff72 	bl	401a84 <clearBox>
  401cb8:	e59f02f8 	ldr	r0, [pc, #760]	; 401fb8 <clear2draw1+0xdc>
  401cbc:	e5900000 	ldr	r0, [r0]
  401cc0:	e59f12f0 	ldr	r1, [pc, #752]	; 401fb8 <clear2draw1+0xdc>
  401cc4:	e5911004 	ldr	r1, [r1, #4]
  401cc8:	ebffff6d 	bl	401a84 <clearBox>
  401ccc:	e59f02e8 	ldr	r0, [pc, #744]	; 401fbc <clear2draw1+0xe0>
  401cd0:	e5900000 	ldr	r0, [r0]
  401cd4:	e59f12e0 	ldr	r1, [pc, #736]	; 401fbc <clear2draw1+0xe0>
  401cd8:	e5911004 	ldr	r1, [r1, #4]
  401cdc:	ebffff83 	bl	401af0 <clearShell>
  401ce0:	e3a02002 	mov	r2, #2
  401ce4:	e59f334c 	ldr	r3, [pc, #844]	; 402038 <clear2draw1+0x15c>
  401ce8:	e5832000 	str	r2, [r3]
  401cec:	eb000021 	bl	401d78 <initializeScreenTwo>
  401cf0:	e49de004 	pop	{lr}		; (ldr lr, [sp], #4)
  401cf4:	e1a0f00e 	mov	pc, lr

00401cf8 <clear2draw3>:
  401cf8:	e52de004 	push	{lr}		; (str lr, [sp, #-4]!)
  401cfc:	e59f0338 	ldr	r0, [pc, #824]	; 40203c <clear2draw1+0x160>
  401d00:	e5900000 	ldr	r0, [r0]
  401d04:	e59f1330 	ldr	r1, [pc, #816]	; 40203c <clear2draw1+0x160>
  401d08:	e5911004 	ldr	r1, [r1, #4]
  401d0c:	ebffff6e 	bl	401acc <clearPipe>
  401d10:	e59f0328 	ldr	r0, [pc, #808]	; 402040 <clear2draw1+0x164>
  401d14:	e5900000 	ldr	r0, [r0]
  401d18:	e59f1320 	ldr	r1, [pc, #800]	; 402040 <clear2draw1+0x164>
  401d1c:	e5911004 	ldr	r1, [r1, #4]
  401d20:	ebffff69 	bl	401acc <clearPipe>
  401d24:	e59f0318 	ldr	r0, [pc, #792]	; 402044 <clear2draw1+0x168>
  401d28:	e5900000 	ldr	r0, [r0]
  401d2c:	e59f1310 	ldr	r1, [pc, #784]	; 402044 <clear2draw1+0x168>
  401d30:	e5911004 	ldr	r1, [r1, #4]
  401d34:	ebffff5b 	bl	401aa8 <clearDragon>
  401d38:	e59f0308 	ldr	r0, [pc, #776]	; 402048 <clear2draw1+0x16c>
  401d3c:	e5900000 	ldr	r0, [r0]
  401d40:	e59f1300 	ldr	r1, [pc, #768]	; 402048 <clear2draw1+0x16c>
  401d44:	e5911004 	ldr	r1, [r1, #4]
  401d48:	ebffff4d 	bl	401a84 <clearBox>
  401d4c:	e59f02f8 	ldr	r0, [pc, #760]	; 40204c <clear2draw1+0x170>
  401d50:	e5900000 	ldr	r0, [r0]
  401d54:	e59f12f0 	ldr	r1, [pc, #752]	; 40204c <clear2draw1+0x170>
  401d58:	e5911004 	ldr	r1, [r1, #4]
  401d5c:	ebffff48 	bl	401a84 <clearBox>
  401d60:	e3a02003 	mov	r2, #3
  401d64:	e59f32cc 	ldr	r3, [pc, #716]	; 402038 <clear2draw1+0x15c>
  401d68:	e5832000 	str	r2, [r3]
  401d6c:	eb00001d 	bl	401de8 <initializeScreenThree>
  401d70:	e49de004 	pop	{lr}		; (ldr lr, [sp], #4)
  401d74:	e1a0f00e 	mov	pc, lr

00401d78 <initializeScreenTwo>:
  401d78:	e52de004 	push	{lr}		; (str lr, [sp, #-4]!)
  401d7c:	e59f02b8 	ldr	r0, [pc, #696]	; 40203c <clear2draw1+0x160>
  401d80:	e5900000 	ldr	r0, [r0]
  401d84:	e59f12b0 	ldr	r1, [pc, #688]	; 40203c <clear2draw1+0x160>
  401d88:	e5911004 	ldr	r1, [r1, #4]
  401d8c:	ebfffef4 	bl	401964 <drawPipe>
  401d90:	e59f02a8 	ldr	r0, [pc, #680]	; 402040 <clear2draw1+0x164>
  401d94:	e5900000 	ldr	r0, [r0]
  401d98:	e59f12a0 	ldr	r1, [pc, #672]	; 402040 <clear2draw1+0x164>
  401d9c:	e5911004 	ldr	r1, [r1, #4]
  401da0:	ebfffeef 	bl	401964 <drawPipe>
  401da4:	e59f0298 	ldr	r0, [pc, #664]	; 402044 <clear2draw1+0x168>
  401da8:	e5900000 	ldr	r0, [r0]
  401dac:	e59f1290 	ldr	r1, [pc, #656]	; 402044 <clear2draw1+0x168>
  401db0:	e5911004 	ldr	r1, [r1, #4]
  401db4:	ebfffef3 	bl	401988 <drawDragon>
  401db8:	e59f0288 	ldr	r0, [pc, #648]	; 402048 <clear2draw1+0x16c>
  401dbc:	e5900000 	ldr	r0, [r0]
  401dc0:	e59f1280 	ldr	r1, [pc, #640]	; 402048 <clear2draw1+0x16c>
  401dc4:	e5911004 	ldr	r1, [r1, #4]
  401dc8:	ebfffedc 	bl	401940 <drawCoinBlock>
  401dcc:	e59f0278 	ldr	r0, [pc, #632]	; 40204c <clear2draw1+0x170>
  401dd0:	e5900000 	ldr	r0, [r0]
  401dd4:	e59f1270 	ldr	r1, [pc, #624]	; 40204c <clear2draw1+0x170>
  401dd8:	e5911004 	ldr	r1, [r1, #4]
  401ddc:	ebfffed7 	bl	401940 <drawCoinBlock>
  401de0:	e49de004 	pop	{lr}		; (ldr lr, [sp], #4)
  401de4:	e1a0f00e 	mov	pc, lr

00401de8 <initializeScreenThree>:
  401de8:	e52de004 	push	{lr}		; (str lr, [sp, #-4]!)
  401dec:	e59f025c 	ldr	r0, [pc, #604]	; 402050 <clear2draw1+0x174>
  401df0:	e5900000 	ldr	r0, [r0]
  401df4:	e59f1254 	ldr	r1, [pc, #596]	; 402050 <clear2draw1+0x174>
  401df8:	e5911004 	ldr	r1, [r1, #4]
  401dfc:	ebfffef3 	bl	4019d0 <drawCastle>
  401e00:	e59f024c 	ldr	r0, [pc, #588]	; 402054 <clear2draw1+0x178>
  401e04:	e5900000 	ldr	r0, [r0]
  401e08:	e59f1244 	ldr	r1, [pc, #580]	; 402054 <clear2draw1+0x178>
  401e0c:	e5911004 	ldr	r1, [r1, #4]
  401e10:	ebffff00 	bl	401a18 <drawBowser>
  401e14:	e59f023c 	ldr	r0, [pc, #572]	; 402058 <clear2draw1+0x17c>
  401e18:	e5900000 	ldr	r0, [r0]
  401e1c:	e59f1234 	ldr	r1, [pc, #564]	; 402058 <clear2draw1+0x17c>
  401e20:	e5911004 	ldr	r1, [r1, #4]
  401e24:	ebfffef2 	bl	4019f4 <drawPit>
  401e28:	e59f022c 	ldr	r0, [pc, #556]	; 40205c <clear2draw1+0x180>
  401e2c:	e5900000 	ldr	r0, [r0]
  401e30:	e59f1224 	ldr	r1, [pc, #548]	; 40205c <clear2draw1+0x180>
  401e34:	e5911004 	ldr	r1, [r1, #4]
  401e38:	ebfffeb7 	bl	40191c <drawBlock>
  401e3c:	e59f021c 	ldr	r0, [pc, #540]	; 402060 <clear2draw1+0x184>
  401e40:	e5900000 	ldr	r0, [r0]
  401e44:	e59f1214 	ldr	r1, [pc, #532]	; 402060 <clear2draw1+0x184>
  401e48:	e5911004 	ldr	r1, [r1, #4]
  401e4c:	ebfffeb2 	bl	40191c <drawBlock>
  401e50:	e49de004 	pop	{lr}		; (ldr lr, [sp], #4)
  401e54:	e1a0f00e 	mov	pc, lr

00401e58 <clear3draw2>:
  401e58:	e52de004 	push	{lr}		; (str lr, [sp, #-4]!)
  401e5c:	e59f01ec 	ldr	r0, [pc, #492]	; 402050 <clear2draw1+0x174>
  401e60:	e5900000 	ldr	r0, [r0]
  401e64:	e59f11e4 	ldr	r1, [pc, #484]	; 402050 <clear2draw1+0x174>
  401e68:	e5911004 	ldr	r1, [r1, #4]
  401e6c:	ebfffefb 	bl	401a60 <clearCastle>
  401e70:	e59f01dc 	ldr	r0, [pc, #476]	; 402054 <clear2draw1+0x178>
  401e74:	e5900000 	ldr	r0, [r0]
  401e78:	e59f11d4 	ldr	r1, [pc, #468]	; 402054 <clear2draw1+0x178>
  401e7c:	e5911004 	ldr	r1, [r1, #4]
  401e80:	ebfffeed 	bl	401a3c <clearBowser>
  401e84:	e3a00000 	mov	r0, #0
  401e88:	e59f1134 	ldr	r1, [pc, #308]	; 401fc4 <clear2draw1+0xe8>
  401e8c:	e59f2134 	ldr	r2, [pc, #308]	; 401fc8 <clear2draw1+0xec>
  401e90:	e3a07b01 	mov	r7, #1024	; 0x400
  401e94:	e3a08c03 	mov	r8, #768	; 0x300
  401e98:	ebffff4a 	bl	401bc8 <drawPicture>
  401e9c:	e59f01b8 	ldr	r0, [pc, #440]	; 40205c <clear2draw1+0x180>
  401ea0:	e5900000 	ldr	r0, [r0]
  401ea4:	e59f11b0 	ldr	r1, [pc, #432]	; 40205c <clear2draw1+0x180>
  401ea8:	e5911004 	ldr	r1, [r1, #4]
  401eac:	ebfffef4 	bl	401a84 <clearBox>
  401eb0:	e59f01a8 	ldr	r0, [pc, #424]	; 402060 <clear2draw1+0x184>
  401eb4:	e5900000 	ldr	r0, [r0]
  401eb8:	e59f11a0 	ldr	r1, [pc, #416]	; 402060 <clear2draw1+0x184>
  401ebc:	e5911004 	ldr	r1, [r1, #4]
  401ec0:	ebfffeef 	bl	401a84 <clearBox>
  401ec4:	e3a02002 	mov	r2, #2
  401ec8:	e59f3168 	ldr	r3, [pc, #360]	; 402038 <clear2draw1+0x15c>
  401ecc:	e5832000 	str	r2, [r3]
  401ed0:	ebffffa8 	bl	401d78 <initializeScreenTwo>
  401ed4:	e49de004 	pop	{lr}		; (ldr lr, [sp], #4)
  401ed8:	e1a0f00e 	mov	pc, lr

00401edc <clear2draw1>:
  401edc:	e52de004 	push	{lr}		; (str lr, [sp, #-4]!)
  401ee0:	e59f0154 	ldr	r0, [pc, #340]	; 40203c <clear2draw1+0x160>
  401ee4:	e5900000 	ldr	r0, [r0]
  401ee8:	e59f114c 	ldr	r1, [pc, #332]	; 40203c <clear2draw1+0x160>
  401eec:	e5911004 	ldr	r1, [r1, #4]
  401ef0:	ebfffef5 	bl	401acc <clearPipe>
  401ef4:	e59f0144 	ldr	r0, [pc, #324]	; 402040 <clear2draw1+0x164>
  401ef8:	e5900000 	ldr	r0, [r0]
  401efc:	e59f113c 	ldr	r1, [pc, #316]	; 402040 <clear2draw1+0x164>
  401f00:	e5911004 	ldr	r1, [r1, #4]
  401f04:	ebfffef0 	bl	401acc <clearPipe>
  401f08:	e59f0134 	ldr	r0, [pc, #308]	; 402044 <clear2draw1+0x168>
  401f0c:	e5900000 	ldr	r0, [r0]
  401f10:	e59f112c 	ldr	r1, [pc, #300]	; 402044 <clear2draw1+0x168>
  401f14:	e5911004 	ldr	r1, [r1, #4]
  401f18:	ebfffee2 	bl	401aa8 <clearDragon>
  401f1c:	e59f0124 	ldr	r0, [pc, #292]	; 402048 <clear2draw1+0x16c>
  401f20:	e5900000 	ldr	r0, [r0]
  401f24:	e59f111c 	ldr	r1, [pc, #284]	; 402048 <clear2draw1+0x16c>
  401f28:	e5911004 	ldr	r1, [r1, #4]
  401f2c:	ebfffed4 	bl	401a84 <clearBox>
  401f30:	e59f0114 	ldr	r0, [pc, #276]	; 40204c <clear2draw1+0x170>
  401f34:	e5900000 	ldr	r0, [r0]
  401f38:	e59f110c 	ldr	r1, [pc, #268]	; 40204c <clear2draw1+0x170>
  401f3c:	e5911004 	ldr	r1, [r1, #4]
  401f40:	ebfffecf 	bl	401a84 <clearBox>
  401f44:	e59f0064 	ldr	r0, [pc, #100]	; 401fb0 <clear2draw1+0xd4>
  401f48:	e5900000 	ldr	r0, [r0]
  401f4c:	e59f105c 	ldr	r1, [pc, #92]	; 401fb0 <clear2draw1+0xd4>
  401f50:	e5911004 	ldr	r1, [r1, #4]
  401f54:	ebfffe70 	bl	40191c <drawBlock>
  401f58:	e59f0054 	ldr	r0, [pc, #84]	; 401fb4 <clear2draw1+0xd8>
  401f5c:	e5900000 	ldr	r0, [r0]
  401f60:	e59f104c 	ldr	r1, [pc, #76]	; 401fb4 <clear2draw1+0xd8>
  401f64:	e5911004 	ldr	r1, [r1, #4]
  401f68:	ebfffe74 	bl	401940 <drawCoinBlock>
  401f6c:	e59f0044 	ldr	r0, [pc, #68]	; 401fb8 <clear2draw1+0xdc>
  401f70:	e5900000 	ldr	r0, [r0]
  401f74:	e59f103c 	ldr	r1, [pc, #60]	; 401fb8 <clear2draw1+0xdc>
  401f78:	e5911004 	ldr	r1, [r1, #4]
  401f7c:	ebfffe66 	bl	40191c <drawBlock>
  401f80:	e59f0034 	ldr	r0, [pc, #52]	; 401fbc <clear2draw1+0xe0>
  401f84:	e5900000 	ldr	r0, [r0]
  401f88:	e59f102c 	ldr	r1, [pc, #44]	; 401fbc <clear2draw1+0xe0>
  401f8c:	e5911004 	ldr	r1, [r1, #4]
  401f90:	ebfffe85 	bl	4019ac <drawShell>
  401f94:	e3a02001 	mov	r2, #1
  401f98:	e59f3098 	ldr	r3, [pc, #152]	; 402038 <clear2draw1+0x15c>
  401f9c:	e5832000 	str	r2, [r3]
  401fa0:	e49de004 	pop	{lr}		; (ldr lr, [sp], #4)
  401fa4:	e1a0f00e 	mov	pc, lr
  401fa8:	00009198 	.word	0x00009198
  401fac:	000002ee 	.word	0x000002ee
  401fb0:	00009138 	.word	0x00009138
  401fb4:	00009158 	.word	0x00009158
  401fb8:	00009140 	.word	0x00009140
  401fbc:	00009128 	.word	0x00009128
  401fc0:	000729d8 	.word	0x000729d8
  401fc4:	0000022d 	.word	0x0000022d
  401fc8:	000091d8 	.word	0x000091d8
  401fcc:	00009110 	.word	0x00009110
  401fd0:	001f4044 	.word	0x001f4044
  401fd4:	001f29d8 	.word	0x001f29d8
  401fd8:	001fdf04 	.word	0x001fdf04
  401fdc:	001f56b0 	.word	0x001f56b0
  401fe0:	001fcf32 	.word	0x001fcf32
  401fe4:	001fbf60 	.word	0x001fbf60
  401fe8:	00200542 	.word	0x00200542
  401fec:	00203c60 	.word	0x00203c60
  401ff0:	00204ea8 	.word	0x00204ea8
  401ff4:	0020a42a 	.word	0x0020a42a
  401ff8:	00000166 	.word	0x00000166
  401ffc:	00248d72 	.word	0x00248d72
  402000:	00255d26 	.word	0x00255d26
  402004:	0025d57e 	.word	0x0025d57e
  402008:	0025d57e 	.word	0x0025d57e
  40200c:	001ff570 	.word	0x001ff570
  402010:	00205ac4 	.word	0x00205ac4
  402014:	00206d0c 	.word	0x00206d0c
  402018:	00259536 	.word	0x00259536
  40201c:	0025a152 	.word	0x0025a152
  402020:	0025b580 	.word	0x0025b580
  402024:	0025c9ae 	.word	0x0025c9ae
  402028:	0025cd9e 	.word	0x0025cd9e
  40202c:	0025d18e 	.word	0x0025d18e
  402030:	0000643f 	.word	0x0000643f
  402034:	00009100 	.word	0x00009100
  402038:	00009134 	.word	0x00009134
  40203c:	00009170 	.word	0x00009170
  402040:	00009178 	.word	0x00009178
  402044:	0000911c 	.word	0x0000911c
  402048:	00009160 	.word	0x00009160
  40204c:	00009168 	.word	0x00009168
  402050:	00009180 	.word	0x00009180
  402054:	00009188 	.word	0x00009188
  402058:	00009190 	.word	0x00009190
  40205c:	00009148 	.word	0x00009148
  402060:	00009150 	.word	0x00009150

00402064 <_InitAll>:
  402064:	eaffffff 	b	402068 <InitClock>

00402068 <InitClock>:
  402068:	e59f0060 	ldr	r0, [pc, #96]	; 4020d0 <InitData+0x20>
  40206c:	e5901000 	ldr	r1, [r0]
  402070:	e3a02007 	mov	r2, #7
  402074:	e1a02182 	lsl	r2, r2, #3
  402078:	e1c11002 	bic	r1, r1, r2
  40207c:	e3a03001 	mov	r3, #1
  402080:	e1a03183 	lsl	r3, r3, #3
  402084:	e1811003 	orr	r1, r1, r3
  402088:	e5801000 	str	r1, [r0]

0040208c <InitLatch>:
  40208c:	e59f0040 	ldr	r0, [pc, #64]	; 4020d4 <InitData+0x24>
  402090:	e5901000 	ldr	r1, [r0]
  402094:	e3a02007 	mov	r2, #7
  402098:	e1a02d82 	lsl	r2, r2, #27
  40209c:	e1c11002 	bic	r1, r1, r2
  4020a0:	e3a03001 	mov	r3, #1
  4020a4:	e1a03d83 	lsl	r3, r3, #27
  4020a8:	e1811003 	orr	r1, r1, r3
  4020ac:	e5801000 	str	r1, [r0]

004020b0 <InitData>:
  4020b0:	e59f0018 	ldr	r0, [pc, #24]	; 4020d0 <InitData+0x20>
  4020b4:	e5901000 	ldr	r1, [r0]
  4020b8:	e3a02007 	mov	r2, #7
  4020bc:	e1c11002 	bic	r1, r1, r2
  4020c0:	e3a03001 	mov	r3, #1
  4020c4:	e0833001 	add	r3, r3, r1
  4020c8:	e5801000 	str	r1, [r0]
  4020cc:	e12fff1e 	bx	lr
  4020d0:	3f200004 	.word	0x3f200004
  4020d4:	3f200000 	.word	0x3f200000

004020d8 <StartScreen>:
  4020d8:	e92d47e0 	push	{r5, r6, r7, r8, r9, sl, lr}
  4020dc:	ebfffd6a 	bl	40168c <InitFrameBuffer>
  4020e0:	e3a00000 	mov	r0, #0
  4020e4:	e3a01000 	mov	r1, #0
  4020e8:	e59f2100 	ldr	r2, [pc, #256]	; 4021f0 <Down+0x40>
  4020ec:	e3a07b01 	mov	r7, #1024	; 0x400
  4020f0:	e3a08c03 	mov	r8, #768	; 0x300
  4020f4:	ebfffeb3 	bl	401bc8 <drawPicture>
  4020f8:	e59f00f4 	ldr	r0, [pc, #244]	; 4021f4 <Down+0x44>
  4020fc:	e5900000 	ldr	r0, [r0]
  402100:	e59f10ec 	ldr	r1, [pc, #236]	; 4021f4 <Down+0x44>
  402104:	e5911004 	ldr	r1, [r1, #4]
  402108:	ebfffe81 	bl	401b14 <drawselectCoin>

0040210c <startScreenLoop>:
  40210c:	eb00022b 	bl	4029c0 <_ReadSNES>
  402110:	e59f90e0 	ldr	r9, [pc, #224]	; 4021f8 <Down+0x48>
  402114:	e5d9a004 	ldrb	sl, [r9, #4]
  402118:	e35a0000 	cmp	sl, #0
  40211c:	0b000013 	bleq	402170 <Up>
  402120:	e59f90d0 	ldr	r9, [pc, #208]	; 4021f8 <Down+0x48>
  402124:	e5d9a005 	ldrb	sl, [r9, #5]
  402128:	e35a0000 	cmp	sl, #0
  40212c:	0b00001f 	bleq	4021b0 <Down>
  402130:	e59f90c0 	ldr	r9, [pc, #192]	; 4021f8 <Down+0x48>
  402134:	e5d9a008 	ldrb	sl, [r9, #8]
  402138:	e35a0000 	cmp	sl, #0
  40213c:	0a000000 	beq	402144 <select>
  402140:	eafffff1 	b	40210c <startScreenLoop>

00402144 <select>:
  402144:	e3a06001 	mov	r6, #1
  402148:	e59f50ac 	ldr	r5, [pc, #172]	; 4021fc <Down+0x4c>
  40214c:	e5955000 	ldr	r5, [r5]
  402150:	e1550006 	cmp	r5, r6
  402154:	0a000000 	beq	40215c <done>
  402158:	1afffbf6 	bne	401138 <hang>

0040215c <done>:
  40215c:	e59fa09c 	ldr	sl, [pc, #156]	; 402200 <Down+0x50>
  402160:	e3a09001 	mov	r9, #1
  402164:	e58a9000 	str	r9, [sl]
  402168:	e8bd47e0 	pop	{r5, r6, r7, r8, r9, sl, lr}
  40216c:	e1a0f00e 	mov	pc, lr

00402170 <Up>:
  402170:	e52de004 	push	{lr}		; (str lr, [sp, #-4]!)
  402174:	e59f0088 	ldr	r0, [pc, #136]	; 402204 <Down+0x54>
  402178:	e5900000 	ldr	r0, [r0]
  40217c:	e59f1080 	ldr	r1, [pc, #128]	; 402204 <Down+0x54>
  402180:	e5911004 	ldr	r1, [r1, #4]
  402184:	ebfffe6b 	bl	401b38 <clearselectCoin>
  402188:	e59f0064 	ldr	r0, [pc, #100]	; 4021f4 <Down+0x44>
  40218c:	e5900000 	ldr	r0, [r0]
  402190:	e59f105c 	ldr	r1, [pc, #92]	; 4021f4 <Down+0x44>
  402194:	e5911004 	ldr	r1, [r1, #4]
  402198:	ebfffe5d 	bl	401b14 <drawselectCoin>
  40219c:	e59f2058 	ldr	r2, [pc, #88]	; 4021fc <Down+0x4c>
  4021a0:	e3a03001 	mov	r3, #1
  4021a4:	e5823000 	str	r3, [r2]
  4021a8:	e49de004 	pop	{lr}		; (ldr lr, [sp], #4)
  4021ac:	e1a0f00e 	mov	pc, lr

004021b0 <Down>:
  4021b0:	e52de004 	push	{lr}		; (str lr, [sp, #-4]!)
  4021b4:	e59f0038 	ldr	r0, [pc, #56]	; 4021f4 <Down+0x44>
  4021b8:	e5900000 	ldr	r0, [r0]
  4021bc:	e59f1030 	ldr	r1, [pc, #48]	; 4021f4 <Down+0x44>
  4021c0:	e5911004 	ldr	r1, [r1, #4]
  4021c4:	ebfffe5b 	bl	401b38 <clearselectCoin>
  4021c8:	e59f0034 	ldr	r0, [pc, #52]	; 402204 <Down+0x54>
  4021cc:	e5900000 	ldr	r0, [r0]
  4021d0:	e59f102c 	ldr	r1, [pc, #44]	; 402204 <Down+0x54>
  4021d4:	e5911004 	ldr	r1, [r1, #4]
  4021d8:	ebfffe4d 	bl	401b14 <drawselectCoin>
  4021dc:	e59f2018 	ldr	r2, [pc, #24]	; 4021fc <Down+0x4c>
  4021e0:	e3a03000 	mov	r3, #0
  4021e4:	e5823000 	str	r3, [r2]
  4021e8:	e49de004 	pop	{lr}		; (ldr lr, [sp], #4)
  4021ec:	e1a0f00e 	mov	pc, lr
  4021f0:	0025d580 	.word	0x0025d580
  4021f4:	000091a4 	.word	0x000091a4
  4021f8:	00009080 	.word	0x00009080
  4021fc:	0000919c 	.word	0x0000919c
  402200:	00009198 	.word	0x00009198
  402204:	000091ac 	.word	0x000091ac

00402208 <_ReadData>:
  402208:	e92d47f0 	push	{r4, r5, r6, r7, r8, r9, sl, lr}
  40220c:	eaffffff 	b	402210 <ReadData>

00402210 <ReadData>:
  402210:	e3a0000a 	mov	r0, #10
  402214:	e59f2020 	ldr	r2, [pc, #32]	; 40223c <ReadData+0x2c>
  402218:	e5921034 	ldr	r1, [r2, #52]	; 0x34
  40221c:	e3a03001 	mov	r3, #1
  402220:	e1a03013 	lsl	r3, r3, r0
  402224:	e0011003 	and	r1, r1, r3
  402228:	e3310000 	teq	r1, #0
  40222c:	03a00000 	moveq	r0, #0
  402230:	13a00001 	movne	r0, #1
  402234:	e8bd47f0 	pop	{r4, r5, r6, r7, r8, r9, sl, lr}
  402238:	e12fff1e 	bx	lr
  40223c:	3f200000 	.word	0x3f200000

00402240 <UpdateSprites>:
  402240:	e92d47f0 	push	{r4, r5, r6, r7, r8, r9, sl, lr}
  402244:	e3570001 	cmp	r7, #1
  402248:	0a000015 	beq	4022a4 <B>
  40224c:	e3570002 	cmp	r7, #2
  402250:	0a000015 	beq	4022ac <Y>
  402254:	e3570003 	cmp	r7, #3
  402258:	0a000015 	beq	4022b4 <Sel>
  40225c:	e3570004 	cmp	r7, #4
  402260:	0a000015 	beq	4022bc <St>
  402264:	e3570005 	cmp	r7, #5
  402268:	0a000016 	beq	4022c8 <JPU>
  40226c:	e3570007 	cmp	r7, #7
  402270:	0a000017 	beq	4022d4 <JPL>
  402274:	e3570008 	cmp	r7, #8
  402278:	0a000017 	beq	4022dc <JPR>
  40227c:	e3570009 	cmp	r7, #9
  402280:	0a000017 	beq	4022e4 <A>
  402284:	e357000a 	cmp	r7, #10
  402288:	0a000017 	beq	4022ec <X>
  40228c:	e357000b 	cmp	r7, #11
  402290:	0a000017 	beq	4022f4 <LB>
  402294:	e357000c 	cmp	r7, #12
  402298:	0a000017 	beq	4022fc <RB>
  40229c:	e357000d 	cmp	r7, #13
  4022a0:	aa0002b4 	bge	402d78 <GL>

004022a4 <B>:
  4022a4:	e3540000 	cmp	r4, #0
  4022a8:	0a0001e9 	beq	402a54 <BPress>

004022ac <Y>:
  4022ac:	e3540000 	cmp	r4, #0
  4022b0:	0b0001ea 	bleq	402a60 <STPress>

004022b4 <Sel>:
  4022b4:	e3540000 	cmp	r4, #0
  4022b8:	0a0001e8 	beq	402a60 <STPress>

004022bc <St>:
  4022bc:	e3540000 	cmp	r4, #0
  4022c0:	0b0001e6 	bleq	402a60 <STPress>
  4022c4:	ea0002ab 	b	402d78 <GL>

004022c8 <JPU>:
  4022c8:	e3540000 	cmp	r4, #0
  4022cc:	0b0001f8 	bleq	402ab4 <JPUPress>
  4022d0:	ea0002a8 	b	402d78 <GL>

004022d4 <JPL>:
  4022d4:	e3540000 	cmp	r4, #0
  4022d8:	0a000264 	beq	402c70 <JPLPress>

004022dc <JPR>:
  4022dc:	e3540000 	cmp	r4, #0
  4022e0:	0a00027c 	beq	402cd8 <JPRPress>

004022e4 <A>:
  4022e4:	e3540000 	cmp	r4, #0
  4022e8:	0a00029a 	beq	402d58 <APress>

004022ec <X>:
  4022ec:	e3540000 	cmp	r4, #0
  4022f0:	0a000298 	beq	402d58 <APress>

004022f4 <LB>:
  4022f4:	e3540000 	cmp	r4, #0
  4022f8:	0a000296 	beq	402d58 <APress>

004022fc <RB>:
  4022fc:	e3540000 	cmp	r4, #0
  402300:	0a000294 	beq	402d58 <APress>
  402304:	0affffff 	beq	402308 <blockUpdate>

00402308 <blockUpdate>:
  402308:	e8bd47f0 	pop	{r4, r5, r6, r7, r8, r9, sl, lr}
  40230c:	e12fff1e 	bx	lr

00402310 <_Wait>:
  402310:	e92d47f0 	push	{r4, r5, r6, r7, r8, r9, sl, lr}
  402314:	e1a04000 	mov	r4, r0
  402318:	eaffffff 	b	40231c <Wait>

0040231c <Wait>:
  40231c:	e59f0050 	ldr	r0, [pc, #80]	; 402374 <LoopInWaitL+0x18>
  402320:	e5901000 	ldr	r1, [r0]
  402324:	e0811004 	add	r1, r1, r4

00402328 <LoopInWait>:
  402328:	e59f0044 	ldr	r0, [pc, #68]	; 402374 <LoopInWaitL+0x18>
  40232c:	e5902000 	ldr	r2, [r0]
  402330:	e1520001 	cmp	r2, r1
  402334:	bafffffb 	blt	402328 <LoopInWait>
  402338:	e8bd47f0 	pop	{r4, r5, r6, r7, r8, r9, sl, lr}
  40233c:	e12fff1e 	bx	lr

00402340 <WaitLong>:
  402340:	e92d47f0 	push	{r4, r5, r6, r7, r8, r9, sl, lr}
  402344:	e1a04000 	mov	r4, r0
  402348:	e3a0503c 	mov	r5, #60	; 0x3c
  40234c:	e0040594 	mul	r4, r4, r5
  402350:	e59f001c 	ldr	r0, [pc, #28]	; 402374 <LoopInWaitL+0x18>
  402354:	e5901000 	ldr	r1, [r0]
  402358:	e0811004 	add	r1, r1, r4

0040235c <LoopInWaitL>:
  40235c:	e59f0010 	ldr	r0, [pc, #16]	; 402374 <LoopInWaitL+0x18>
  402360:	e5902000 	ldr	r2, [r0]
  402364:	e1520001 	cmp	r2, r1
  402368:	bafffffb 	blt	40235c <LoopInWaitL>
  40236c:	e8bd47f0 	pop	{r4, r5, r6, r7, r8, r9, sl, lr}
  402370:	e12fff1e 	bx	lr
  402374:	3f003004 	.word	0x3f003004

00402378 <_WriteLatch>:
  402378:	e92d47f0 	push	{r4, r5, r6, r7, r8, r9, sl, lr}
  40237c:	e1a04001 	mov	r4, r1
  402380:	eaffffff 	b	402384 <WriteLatch>

00402384 <WriteLatch>:
  402384:	e3a00009 	mov	r0, #9
  402388:	e59f2018 	ldr	r2, [pc, #24]	; 4023a8 <WriteLatch+0x24>
  40238c:	e3a03001 	mov	r3, #1
  402390:	e1a03013 	lsl	r3, r3, r0
  402394:	e3340000 	teq	r4, #0
  402398:	05823028 	streq	r3, [r2, #40]	; 0x28
  40239c:	1582301c 	strne	r3, [r2, #28]
  4023a0:	e8bd47f0 	pop	{r4, r5, r6, r7, r8, r9, sl, lr}
  4023a4:	e12fff1e 	bx	lr
  4023a8:	3f200000 	.word	0x3f200000

004023ac <PauseMenu>:
  4023ac:	e92d47e0 	push	{r5, r6, r7, r8, r9, sl, lr}
  4023b0:	e59f9398 	ldr	r9, [pc, #920]	; 402750 <ClearMenu+0x24>
  4023b4:	e3a0a001 	mov	sl, #1
  4023b8:	e589a000 	str	sl, [r9]
  4023bc:	e59f1390 	ldr	r1, [pc, #912]	; 402754 <ClearMenu+0x28>
  4023c0:	e3a02001 	mov	r2, #1
  4023c4:	e5812000 	str	r2, [r1]
  4023c8:	e59f0388 	ldr	r0, [pc, #904]	; 402758 <ClearMenu+0x2c>
  4023cc:	e5900000 	ldr	r0, [r0]
  4023d0:	e59f1380 	ldr	r1, [pc, #896]	; 402758 <ClearMenu+0x2c>
  4023d4:	e5911004 	ldr	r1, [r1, #4]
  4023d8:	eb0000ca 	bl	402708 <drawPauseMenu>
  4023dc:	e59f0378 	ldr	r0, [pc, #888]	; 40275c <ClearMenu+0x30>
  4023e0:	e5900000 	ldr	r0, [r0]
  4023e4:	e59f1370 	ldr	r1, [pc, #880]	; 40275c <ClearMenu+0x30>
  4023e8:	e5911004 	ldr	r1, [r1, #4]
  4023ec:	ebfffdda 	bl	401b5c <drawPauseSelectCoin>

004023f0 <PauseScreenLoop>:
  4023f0:	eb000172 	bl	4029c0 <_ReadSNES>
  4023f4:	e59f9364 	ldr	r9, [pc, #868]	; 402760 <ClearMenu+0x34>
  4023f8:	e5d9a004 	ldrb	sl, [r9, #4]
  4023fc:	e35a0000 	cmp	sl, #0
  402400:	0b00008b 	bleq	402634 <Up>
  402404:	e59f9354 	ldr	r9, [pc, #852]	; 402760 <ClearMenu+0x34>
  402408:	e5d9a005 	ldrb	sl, [r9, #5]
  40240c:	e35a0000 	cmp	sl, #0
  402410:	0b000097 	bleq	402674 <Down>
  402414:	e59f9344 	ldr	r9, [pc, #836]	; 402760 <ClearMenu+0x34>
  402418:	e5d9a008 	ldrb	sl, [r9, #8]
  40241c:	e35a0000 	cmp	sl, #0
  402420:	0a00001b 	beq	402494 <restart>
  402424:	e5d9a001 	ldrb	sl, [r9, #1]
  402428:	e35a0000 	cmp	sl, #0
  40242c:	0a00007d 	beq	402628 <removeScreen>
  402430:	e5d9a002 	ldrb	sl, [r9, #2]
  402434:	e35a0000 	cmp	sl, #0
  402438:	0a00007a 	beq	402628 <removeScreen>
  40243c:	e5d9a003 	ldrb	sl, [r9, #3]
  402440:	e35a0000 	cmp	sl, #0
  402444:	0a000077 	beq	402628 <removeScreen>
  402448:	e5d9a006 	ldrb	sl, [r9, #6]
  40244c:	e35a0000 	cmp	sl, #0
  402450:	0a000074 	beq	402628 <removeScreen>
  402454:	e5d9a007 	ldrb	sl, [r9, #7]
  402458:	e35a0000 	cmp	sl, #0
  40245c:	0a000071 	beq	402628 <removeScreen>
  402460:	e5d9a009 	ldrb	sl, [r9, #9]
  402464:	e35a0000 	cmp	sl, #0
  402468:	0a00006e 	beq	402628 <removeScreen>
  40246c:	e5d9a00a 	ldrb	sl, [r9, #10]
  402470:	e35a0000 	cmp	sl, #0
  402474:	0a00006b 	beq	402628 <removeScreen>
  402478:	e5d9a00b 	ldrb	sl, [r9, #11]
  40247c:	e35a0000 	cmp	sl, #0
  402480:	0a000068 	beq	402628 <removeScreen>
  402484:	e5d9a00c 	ldrb	sl, [r9, #12]
  402488:	e35a0000 	cmp	sl, #0
  40248c:	0a000065 	beq	402628 <removeScreen>
  402490:	eaffffd6 	b	4023f0 <PauseScreenLoop>

00402494 <restart>:
  402494:	e59f12c8 	ldr	r1, [pc, #712]	; 402764 <ClearMenu+0x38>
  402498:	e3a02000 	mov	r2, #0
  40249c:	e5812000 	str	r2, [r1]
  4024a0:	e59f22c0 	ldr	r2, [pc, #704]	; 402768 <ClearMenu+0x3c>
  4024a4:	e5812004 	str	r2, [r1, #4]
  4024a8:	e59f12bc 	ldr	r1, [pc, #700]	; 40276c <ClearMenu+0x40>
  4024ac:	e3a02f7d 	mov	r2, #500	; 0x1f4
  4024b0:	e5812000 	str	r2, [r1]
  4024b4:	e59f22b4 	ldr	r2, [pc, #692]	; 402770 <ClearMenu+0x44>
  4024b8:	e5812004 	str	r2, [r1, #4]
  4024bc:	e59f12b0 	ldr	r1, [pc, #688]	; 402774 <ClearMenu+0x48>
  4024c0:	e59f22b0 	ldr	r2, [pc, #688]	; 402778 <ClearMenu+0x4c>
  4024c4:	e5812000 	str	r2, [r1]
  4024c8:	e59f22ac 	ldr	r2, [pc, #684]	; 40277c <ClearMenu+0x50>
  4024cc:	e5812004 	str	r2, [r1, #4]
  4024d0:	e3a03000 	mov	r3, #0
  4024d4:	e5813008 	str	r3, [r1, #8]
  4024d8:	e59f12a0 	ldr	r1, [pc, #672]	; 402780 <ClearMenu+0x54>
  4024dc:	e3a02001 	mov	r2, #1
  4024e0:	e5812000 	str	r2, [r1]
  4024e4:	e59f1298 	ldr	r1, [pc, #664]	; 402784 <ClearMenu+0x58>
  4024e8:	e59f2298 	ldr	r2, [pc, #664]	; 402788 <ClearMenu+0x5c>
  4024ec:	e5812000 	str	r2, [r1]
  4024f0:	e3a02e19 	mov	r2, #400	; 0x190
  4024f4:	e5812004 	str	r2, [r1, #4]
  4024f8:	e59f128c 	ldr	r1, [pc, #652]	; 40278c <ClearMenu+0x60>
  4024fc:	e3a02faf 	mov	r2, #700	; 0x2bc
  402500:	e5812000 	str	r2, [r1]
  402504:	e3a02e19 	mov	r2, #400	; 0x190
  402508:	e5812004 	str	r2, [r1, #4]
  40250c:	e59f127c 	ldr	r1, [pc, #636]	; 402790 <ClearMenu+0x64>
  402510:	e3a020be 	mov	r2, #190	; 0xbe
  402514:	e5812000 	str	r2, [r1]
  402518:	e3a02f6e 	mov	r2, #440	; 0x1b8
  40251c:	e5812004 	str	r2, [r1, #4]
  402520:	e59f126c 	ldr	r1, [pc, #620]	; 402794 <ClearMenu+0x68>
  402524:	e3a02f41 	mov	r2, #260	; 0x104
  402528:	e5812000 	str	r2, [r1]
  40252c:	e59f2264 	ldr	r2, [pc, #612]	; 402798 <ClearMenu+0x6c>
  402530:	e5812004 	str	r2, [r1, #4]
  402534:	e59f1260 	ldr	r1, [pc, #608]	; 40279c <ClearMenu+0x70>
  402538:	e59f2260 	ldr	r2, [pc, #608]	; 4027a0 <ClearMenu+0x74>
  40253c:	e5812000 	str	r2, [r1]
  402540:	e3a02e19 	mov	r2, #400	; 0x190
  402544:	e5812004 	str	r2, [r1, #4]
  402548:	e59f1254 	ldr	r1, [pc, #596]	; 4027a4 <ClearMenu+0x78>
  40254c:	e59f2254 	ldr	r2, [pc, #596]	; 4027a8 <ClearMenu+0x7c>
  402550:	e5812000 	str	r2, [r1]
  402554:	e59f2250 	ldr	r2, [pc, #592]	; 4027ac <ClearMenu+0x80>
  402558:	e5812004 	str	r2, [r1, #4]
  40255c:	e59f124c 	ldr	r1, [pc, #588]	; 4027b0 <ClearMenu+0x84>
  402560:	e59f224c 	ldr	r2, [pc, #588]	; 4027b4 <ClearMenu+0x88>
  402564:	e5812000 	str	r2, [r1]
  402568:	e59f223c 	ldr	r2, [pc, #572]	; 4027ac <ClearMenu+0x80>
  40256c:	e5812004 	str	r2, [r1, #4]
  402570:	e59f1240 	ldr	r1, [pc, #576]	; 4027b8 <ClearMenu+0x8c>
  402574:	e3a020fa 	mov	r2, #250	; 0xfa
  402578:	e5812000 	str	r2, [r1]
  40257c:	e3a02f76 	mov	r2, #472	; 0x1d8
  402580:	e5812004 	str	r2, [r1, #4]
  402584:	e59f1230 	ldr	r1, [pc, #560]	; 4027bc <ClearMenu+0x90>
  402588:	e59f2230 	ldr	r2, [pc, #560]	; 4027c0 <ClearMenu+0x94>
  40258c:	e5812000 	str	r2, [r1]
  402590:	e3a02f76 	mov	r2, #472	; 0x1d8
  402594:	e5812004 	str	r2, [r1, #4]
  402598:	e59f1224 	ldr	r1, [pc, #548]	; 4027c4 <ClearMenu+0x98>
  40259c:	e59f2224 	ldr	r2, [pc, #548]	; 4027c8 <ClearMenu+0x9c>
  4025a0:	e5812000 	str	r2, [r1]
  4025a4:	e3a020c7 	mov	r2, #199	; 0xc7
  4025a8:	e5812004 	str	r2, [r1, #4]
  4025ac:	e59f1218 	ldr	r1, [pc, #536]	; 4027cc <ClearMenu+0xa0>
  4025b0:	e3a02e19 	mov	r2, #400	; 0x190
  4025b4:	e5812000 	str	r2, [r1]
  4025b8:	e59f2210 	ldr	r2, [pc, #528]	; 4027d0 <ClearMenu+0xa4>
  4025bc:	e5812004 	str	r2, [r1, #4]
  4025c0:	e59f120c 	ldr	r1, [pc, #524]	; 4027d4 <ClearMenu+0xa8>
  4025c4:	e3a020c8 	mov	r2, #200	; 0xc8
  4025c8:	e5812000 	str	r2, [r1]
  4025cc:	e59f2204 	ldr	r2, [pc, #516]	; 4027d8 <ClearMenu+0xac>
  4025d0:	e5812004 	str	r2, [r1, #4]
  4025d4:	e59f1200 	ldr	r1, [pc, #512]	; 4027dc <ClearMenu+0xb0>
  4025d8:	e3a02003 	mov	r2, #3
  4025dc:	e5812000 	str	r2, [r1]
  4025e0:	e59f11f8 	ldr	r1, [pc, #504]	; 4027e0 <ClearMenu+0xb4>
  4025e4:	e3a02000 	mov	r2, #0
  4025e8:	e5812000 	str	r2, [r1]
  4025ec:	e59f11f0 	ldr	r1, [pc, #496]	; 4027e4 <ClearMenu+0xb8>
  4025f0:	e3a02001 	mov	r2, #1
  4025f4:	e5812000 	str	r2, [r1]

004025f8 <select1>:
  4025f8:	e59f1150 	ldr	r1, [pc, #336]	; 402750 <ClearMenu+0x24>
  4025fc:	e3a02001 	mov	r2, #1
  402600:	e5812000 	str	r2, [r1]
  402604:	e3a06001 	mov	r6, #1
  402608:	e59f5144 	ldr	r5, [pc, #324]	; 402754 <ClearMenu+0x28>
  40260c:	e5955000 	ldr	r5, [r5]
  402610:	e1550006 	cmp	r5, r6
  402614:	0afffac4 	beq	40112c <nG>
  402618:	e59f1130 	ldr	r1, [pc, #304]	; 402750 <ClearMenu+0x24>
  40261c:	e3a02001 	mov	r2, #1
  402620:	e5812000 	str	r2, [r1]
  402624:	eaf01675 	b	8000 <_start>

00402628 <removeScreen>:
  402628:	eb000021 	bl	4026b4 <clearPauseMenu>
  40262c:	e8bd47e0 	pop	{r5, r6, r7, r8, r9, sl, lr}
  402630:	e1a0f00e 	mov	pc, lr

00402634 <Up>:
  402634:	e52de004 	push	{lr}		; (str lr, [sp, #-4]!)
  402638:	e59f01a8 	ldr	r0, [pc, #424]	; 4027e8 <ClearMenu+0xbc>
  40263c:	e5900000 	ldr	r0, [r0]
  402640:	e59f11a0 	ldr	r1, [pc, #416]	; 4027e8 <ClearMenu+0xbc>
  402644:	e5911004 	ldr	r1, [r1, #4]
  402648:	ebfffd4c 	bl	401b80 <clearPauseSelectCoinGreen>
  40264c:	e59f0108 	ldr	r0, [pc, #264]	; 40275c <ClearMenu+0x30>
  402650:	e5900000 	ldr	r0, [r0]
  402654:	e59f1100 	ldr	r1, [pc, #256]	; 40275c <ClearMenu+0x30>
  402658:	e5911004 	ldr	r1, [r1, #4]
  40265c:	ebfffd3e 	bl	401b5c <drawPauseSelectCoin>
  402660:	e59f20ec 	ldr	r2, [pc, #236]	; 402754 <ClearMenu+0x28>
  402664:	e3a03001 	mov	r3, #1
  402668:	e5823000 	str	r3, [r2]
  40266c:	e49de004 	pop	{lr}		; (ldr lr, [sp], #4)
  402670:	e1a0f00e 	mov	pc, lr

00402674 <Down>:
  402674:	e52de004 	push	{lr}		; (str lr, [sp, #-4]!)
  402678:	e59f00dc 	ldr	r0, [pc, #220]	; 40275c <ClearMenu+0x30>
  40267c:	e5900000 	ldr	r0, [r0]
  402680:	e59f10d4 	ldr	r1, [pc, #212]	; 40275c <ClearMenu+0x30>
  402684:	e5911004 	ldr	r1, [r1, #4]
  402688:	ebfffd3c 	bl	401b80 <clearPauseSelectCoinGreen>
  40268c:	e59f0154 	ldr	r0, [pc, #340]	; 4027e8 <ClearMenu+0xbc>
  402690:	e5900000 	ldr	r0, [r0]
  402694:	e59f114c 	ldr	r1, [pc, #332]	; 4027e8 <ClearMenu+0xbc>
  402698:	e5911004 	ldr	r1, [r1, #4]
  40269c:	ebfffd2e 	bl	401b5c <drawPauseSelectCoin>
  4026a0:	e59f20ac 	ldr	r2, [pc, #172]	; 402754 <ClearMenu+0x28>
  4026a4:	e3a03000 	mov	r3, #0
  4026a8:	e5823000 	str	r3, [r2]
  4026ac:	e49de004 	pop	{lr}		; (ldr lr, [sp], #4)
  4026b0:	e1a0f00e 	mov	pc, lr

004026b4 <clearPauseMenu>:
  4026b4:	e92d4180 	push	{r7, r8, lr}
  4026b8:	e59f0098 	ldr	r0, [pc, #152]	; 402758 <ClearMenu+0x2c>
  4026bc:	e5900000 	ldr	r0, [r0]
  4026c0:	e59f1090 	ldr	r1, [pc, #144]	; 402758 <ClearMenu+0x2c>
  4026c4:	e5911004 	ldr	r1, [r1, #4]
  4026c8:	eb000017 	bl	40272c <ClearMenu>
  4026cc:	e59f0088 	ldr	r0, [pc, #136]	; 40275c <ClearMenu+0x30>
  4026d0:	e5900000 	ldr	r0, [r0]
  4026d4:	e59f1080 	ldr	r1, [pc, #128]	; 40275c <ClearMenu+0x30>
  4026d8:	e5911004 	ldr	r1, [r1, #4]
  4026dc:	ebfffd30 	bl	401ba4 <clearPauseSelectCoinBlue>
  4026e0:	e59f0100 	ldr	r0, [pc, #256]	; 4027e8 <ClearMenu+0xbc>
  4026e4:	e5900000 	ldr	r0, [r0]
  4026e8:	e59f10f8 	ldr	r1, [pc, #248]	; 4027e8 <ClearMenu+0xbc>
  4026ec:	e5911004 	ldr	r1, [r1, #4]
  4026f0:	ebfffd2b 	bl	401ba4 <clearPauseSelectCoinBlue>
  4026f4:	e59f1054 	ldr	r1, [pc, #84]	; 402750 <ClearMenu+0x24>
  4026f8:	e3a02000 	mov	r2, #0
  4026fc:	e5812000 	str	r2, [r1]
  402700:	e8bd4180 	pop	{r7, r8, lr}
  402704:	e1a0f00e 	mov	pc, lr

00402708 <drawPauseMenu>:
  402708:	e92d4180 	push	{r7, r8, lr}
  40270c:	e59f20d8 	ldr	r2, [pc, #216]	; 4027ec <ClearMenu+0xc0>
  402710:	e3a070ef 	mov	r7, #239	; 0xef
  402714:	e0877000 	add	r7, r7, r0
  402718:	e3a08099 	mov	r8, #153	; 0x99
  40271c:	e0888001 	add	r8, r8, r1
  402720:	ebfffd28 	bl	401bc8 <drawPicture>
  402724:	e8bd4180 	pop	{r7, r8, lr}
  402728:	e1a0f00e 	mov	pc, lr

0040272c <ClearMenu>:
  40272c:	e92d4180 	push	{r7, r8, lr}
  402730:	e59f20b8 	ldr	r2, [pc, #184]	; 4027f0 <ClearMenu+0xc4>
  402734:	e3a070ef 	mov	r7, #239	; 0xef
  402738:	e0877000 	add	r7, r7, r0
  40273c:	e3a08099 	mov	r8, #153	; 0x99
  402740:	e0888001 	add	r8, r8, r1
  402744:	ebfffd1f 	bl	401bc8 <drawPicture>
  402748:	e8bd4180 	pop	{r7, r8, lr}
  40274c:	e1a0f00e 	mov	pc, lr
  402750:	00009198 	.word	0x00009198
  402754:	000091a0 	.word	0x000091a0
  402758:	003dd580 	.word	0x003dd580
  40275c:	000091b4 	.word	0x000091b4
  402760:	00009080 	.word	0x00009080
  402764:	00009110 	.word	0x00009110
  402768:	000001e7 	.word	0x000001e7
  40276c:	0000911c 	.word	0x0000911c
  402770:	000001f1 	.word	0x000001f1
  402774:	00009128 	.word	0x00009128
  402778:	0000025d 	.word	0x0000025d
  40277c:	000001fb 	.word	0x000001fb
  402780:	00009134 	.word	0x00009134
  402784:	00009138 	.word	0x00009138
  402788:	00000262 	.word	0x00000262
  40278c:	00009140 	.word	0x00009140
  402790:	00009148 	.word	0x00009148
  402794:	00009150 	.word	0x00009150
  402798:	00000186 	.word	0x00000186
  40279c:	00009158 	.word	0x00009158
  4027a0:	0000028f 	.word	0x0000028f
  4027a4:	00009160 	.word	0x00009160
  4027a8:	0000010e 	.word	0x0000010e
  4027ac:	0000015e 	.word	0x0000015e
  4027b0:	00009168 	.word	0x00009168
  4027b4:	00000302 	.word	0x00000302
  4027b8:	00009170 	.word	0x00009170
  4027bc:	00009178 	.word	0x00009178
  4027c0:	000002ee 	.word	0x000002ee
  4027c4:	00009180 	.word	0x00009180
  4027c8:	0000029a 	.word	0x0000029a
  4027cc:	00009188 	.word	0x00009188
  4027d0:	000001a9 	.word	0x000001a9
  4027d4:	00009190 	.word	0x00009190
  4027d8:	0000022d 	.word	0x0000022d
  4027dc:	000091c4 	.word	0x000091c4
  4027e0:	000091c8 	.word	0x000091c8
  4027e4:	00009090 	.word	0x00009090
  4027e8:	000091bc 	.word	0x000091bc
  4027ec:	003dd588 	.word	0x003dd588
  4027f0:	003ef336 	.word	0x003ef336

004027f4 <marioFallDown>:
  4027f4:	e92d47f0 	push	{r4, r5, r6, r7, r8, r9, sl, lr}
  4027f8:	e59f019c 	ldr	r0, [pc, #412]	; 40299c <mfDone+0x8>
  4027fc:	e5904000 	ldr	r4, [r0]
  402800:	e5905004 	ldr	r5, [r0, #4]
  402804:	e2846029 	add	r6, r4, #41	; 0x29
  402808:	e2857046 	add	r7, r5, #70	; 0x46
  40280c:	e284a014 	add	sl, r4, #20
  402810:	e59f0188 	ldr	r0, [pc, #392]	; 4029a0 <mfDone+0xc>
  402814:	e15a0000 	cmp	sl, r0
  402818:	ba00005d 	blt	402994 <mfDone>
  40281c:	e59f0180 	ldr	r0, [pc, #384]	; 4029a4 <mfDone+0x10>
  402820:	e15a0000 	cmp	sl, r0
  402824:	ca00001a 	bgt	402894 <fallDown2>
  402828:	e59f0178 	ldr	r0, [pc, #376]	; 4029a8 <mfDone+0x14>
  40282c:	e1550000 	cmp	r5, r0
  402830:	ca000057 	bgt	402994 <mfDone>
  402834:	e59f8170 	ldr	r8, [pc, #368]	; 4029ac <mfDone+0x18>
  402838:	e5988000 	ldr	r8, [r8]
  40283c:	e3580011 	cmp	r8, #17
  402840:	1a000053 	bne	402994 <mfDone>
  402844:	e1a09005 	mov	r9, r5

00402848 <fallDown>:
  402848:	e289900c 	add	r9, r9, #12
  40284c:	ebfffc1c 	bl	4018c4 <clearMario>
  402850:	e59f0144 	ldr	r0, [pc, #324]	; 40299c <mfDone+0x8>
  402854:	e5809004 	str	r9, [r0, #4]
  402858:	ebfffc02 	bl	401868 <drawMario>
  40285c:	e59f014c 	ldr	r0, [pc, #332]	; 4029b0 <mfDone+0x1c>
  402860:	eb000056 	bl	4029c0 <_ReadSNES>
  402864:	e59f0148 	ldr	r0, [pc, #328]	; 4029b4 <mfDone+0x20>
  402868:	e5d01007 	ldrb	r1, [r0, #7]
  40286c:	e3510000 	cmp	r1, #0
  402870:	0b0000c6 	bleq	402b90 <UpRightPress>
  402874:	e59f0138 	ldr	r0, [pc, #312]	; 4029b4 <mfDone+0x20>
  402878:	e5d01006 	ldrb	r1, [r0, #6]
  40287c:	e3510000 	cmp	r1, #0
  402880:	0b0000e0 	bleq	402c08 <UpLeftPress>
  402884:	e59f0124 	ldr	r0, [pc, #292]	; 4029b0 <mfDone+0x1c>
  402888:	e1590000 	cmp	r9, r0
  40288c:	baffffed 	blt	402848 <fallDown>
  402890:	ea00003f 	b	402994 <mfDone>

00402894 <fallDown2>:
  402894:	e59f0108 	ldr	r0, [pc, #264]	; 4029a4 <mfDone+0x10>
  402898:	e15a0000 	cmp	sl, r0
  40289c:	baffffd4 	blt	4027f4 <marioFallDown>
  4028a0:	e3a00faf 	mov	r0, #700	; 0x2bc
  4028a4:	e15a0000 	cmp	sl, r0
  4028a8:	ca000019 	bgt	402914 <fallDown3>
  4028ac:	e59f00f4 	ldr	r0, [pc, #244]	; 4029a8 <mfDone+0x14>
  4028b0:	ca000037 	bgt	402994 <mfDone>
  4028b4:	e59f80fc 	ldr	r8, [pc, #252]	; 4029b8 <mfDone+0x24>
  4028b8:	e5988000 	ldr	r8, [r8]
  4028bc:	e3580011 	cmp	r8, #17
  4028c0:	1a000033 	bne	402994 <mfDone>
  4028c4:	e1a09005 	mov	r9, r5

004028c8 <f2l>:
  4028c8:	e289900c 	add	r9, r9, #12
  4028cc:	ebfffbfc 	bl	4018c4 <clearMario>
  4028d0:	e59f00c4 	ldr	r0, [pc, #196]	; 40299c <mfDone+0x8>
  4028d4:	e5809004 	str	r9, [r0, #4]
  4028d8:	ebfffbe2 	bl	401868 <drawMario>
  4028dc:	e59f00cc 	ldr	r0, [pc, #204]	; 4029b0 <mfDone+0x1c>
  4028e0:	eb000036 	bl	4029c0 <_ReadSNES>
  4028e4:	e59f00c8 	ldr	r0, [pc, #200]	; 4029b4 <mfDone+0x20>
  4028e8:	e5d01007 	ldrb	r1, [r0, #7]
  4028ec:	e3510000 	cmp	r1, #0
  4028f0:	0b0000a6 	bleq	402b90 <UpRightPress>
  4028f4:	e59f00b8 	ldr	r0, [pc, #184]	; 4029b4 <mfDone+0x20>
  4028f8:	e5d01006 	ldrb	r1, [r0, #6]
  4028fc:	e3510000 	cmp	r1, #0
  402900:	0b0000c0 	bleq	402c08 <UpLeftPress>
  402904:	e59f00a4 	ldr	r0, [pc, #164]	; 4029b0 <mfDone+0x1c>
  402908:	e1590000 	cmp	r9, r0
  40290c:	baffffed 	blt	4028c8 <f2l>
  402910:	ea00001f 	b	402994 <mfDone>

00402914 <fallDown3>:
  402914:	e3a00faf 	mov	r0, #700	; 0x2bc
  402918:	e15a0000 	cmp	sl, r0
  40291c:	baffffb4 	blt	4027f4 <marioFallDown>
  402920:	e59f0094 	ldr	r0, [pc, #148]	; 4029bc <mfDone+0x28>
  402924:	e15a0000 	cmp	sl, r0
  402928:	cafffff9 	bgt	402914 <fallDown3>
  40292c:	e59f0074 	ldr	r0, [pc, #116]	; 4029a8 <mfDone+0x14>
  402930:	ca000017 	bgt	402994 <mfDone>
  402934:	e59f807c 	ldr	r8, [pc, #124]	; 4029b8 <mfDone+0x24>
  402938:	e5988000 	ldr	r8, [r8]
  40293c:	e3580011 	cmp	r8, #17
  402940:	1a000013 	bne	402994 <mfDone>
  402944:	e1a09005 	mov	r9, r5

00402948 <f3l>:
  402948:	e289900c 	add	r9, r9, #12
  40294c:	ebfffbdc 	bl	4018c4 <clearMario>
  402950:	e59f0044 	ldr	r0, [pc, #68]	; 40299c <mfDone+0x8>
  402954:	e5809004 	str	r9, [r0, #4]
  402958:	ebfffbc2 	bl	401868 <drawMario>
  40295c:	e59f004c 	ldr	r0, [pc, #76]	; 4029b0 <mfDone+0x1c>
  402960:	eb000016 	bl	4029c0 <_ReadSNES>
  402964:	e59f0048 	ldr	r0, [pc, #72]	; 4029b4 <mfDone+0x20>
  402968:	e5d01007 	ldrb	r1, [r0, #7]
  40296c:	e3510000 	cmp	r1, #0
  402970:	0b000086 	bleq	402b90 <UpRightPress>
  402974:	e59f0038 	ldr	r0, [pc, #56]	; 4029b4 <mfDone+0x20>
  402978:	e5d01006 	ldrb	r1, [r0, #6]
  40297c:	e3510000 	cmp	r1, #0
  402980:	0b0000a0 	bleq	402c08 <UpLeftPress>
  402984:	e59f0024 	ldr	r0, [pc, #36]	; 4029b0 <mfDone+0x1c>
  402988:	e1590000 	cmp	r9, r0
  40298c:	baffffed 	blt	402948 <f3l>
  402990:	eaffffff 	b	402994 <mfDone>

00402994 <mfDone>:
  402994:	e8bd47f0 	pop	{r4, r5, r6, r7, r8, r9, sl, lr}
  402998:	e1a0f00e 	mov	pc, lr
  40299c:	00009110 	.word	0x00009110
  4029a0:	00000262 	.word	0x00000262
  4029a4:	0000028f 	.word	0x0000028f
  4029a8:	0000014b 	.word	0x0000014b
  4029ac:	00009090 	.word	0x00009090
  4029b0:	000001e7 	.word	0x000001e7
  4029b4:	00009080 	.word	0x00009080
  4029b8:	00009094 	.word	0x00009094
  4029bc:	000002e9 	.word	0x000002e9

004029c0 <_ReadSNES>:
  4029c0:	eaffffff 	b	4029c4 <ReadSNES>

004029c4 <ReadSNES>:
  4029c4:	e92d47f0 	push	{r4, r5, r6, r7, r8, r9, sl, lr}
  4029c8:	e59fa07c 	ldr	sl, [pc, #124]	; 402a4c <pulseLoop+0x40>
  4029cc:	e59aa000 	ldr	sl, [sl]
  4029d0:	e3a09000 	mov	r9, #0
  4029d4:	e15a0009 	cmp	sl, r9
  4029d8:	1a000000 	bne	4029e0 <skipUpdate>
  4029dc:	ebfff9d9 	bl	401148 <updateMonsters>

004029e0 <skipUpdate>:
  4029e0:	e3a01001 	mov	r1, #1
  4029e4:	ebfffb1b 	bl	401658 <_WriteClock>
  4029e8:	e3a01001 	mov	r1, #1
  4029ec:	ebfffe61 	bl	402378 <_WriteLatch>
  4029f0:	e3a0000c 	mov	r0, #12
  4029f4:	ebfffe45 	bl	402310 <_Wait>
  4029f8:	e3a01000 	mov	r1, #0
  4029fc:	ebfffe5d 	bl	402378 <_WriteLatch>
  402a00:	e3a07000 	mov	r7, #0
  402a04:	e3a00e7d 	mov	r0, #2000	; 0x7d0
  402a08:	ebfffe4c 	bl	402340 <WaitLong>

00402a0c <pulseLoop>:
  402a0c:	e3a00006 	mov	r0, #6
  402a10:	ebfffe3e 	bl	402310 <_Wait>
  402a14:	e3a01000 	mov	r1, #0
  402a18:	ebfffb0e 	bl	401658 <_WriteClock>
  402a1c:	e3a00006 	mov	r0, #6
  402a20:	ebfffe3a 	bl	402310 <_Wait>
  402a24:	ebfffdf7 	bl	402208 <_ReadData>
  402a28:	e59f5020 	ldr	r5, [pc, #32]	; 402a50 <pulseLoop+0x44>
  402a2c:	e7c50007 	strb	r0, [r5, r7]
  402a30:	e2877001 	add	r7, r7, #1
  402a34:	e3a01001 	mov	r1, #1
  402a38:	ebfffb06 	bl	401658 <_WriteClock>
  402a3c:	e3570010 	cmp	r7, #16
  402a40:	bafffff1 	blt	402a0c <pulseLoop>
  402a44:	e8bd47f0 	pop	{r4, r5, r6, r7, r8, r9, sl, lr}
  402a48:	e12fff1e 	bx	lr
  402a4c:	00009198 	.word	0x00009198
  402a50:	00009080 	.word	0x00009080

00402a54 <BPress>:
  402a54:	e59f02fc 	ldr	r0, [pc, #764]	; 402d58 <APress>
  402a58:	e5904000 	ldr	r4, [r0]
  402a5c:	e5905004 	ldr	r5, [r0, #4]

00402a60 <STPress>:
  402a60:	e92d47f0 	push	{r4, r5, r6, r7, r8, r9, sl, lr}
  402a64:	ebfffe50 	bl	4023ac <PauseMenu>
  402a68:	e8bd47f0 	pop	{r4, r5, r6, r7, r8, r9, sl, lr}
  402a6c:	e12fff1e 	bx	lr

00402a70 <upOpt>:
  402a70:	ebffffd2 	bl	4029c0 <_ReadSNES>
  402a74:	e59f52e0 	ldr	r5, [pc, #736]	; 402d5c <APress+0x4>
  402a78:	e5d54009 	ldrb	r4, [r5, #9]
  402a7c:	e3540000 	cmp	r4, #0
  402a80:	0af0155e 	beq	8000 <_start>
  402a84:	e5d54006 	ldrb	r4, [r5, #6]
  402a88:	e3540000 	cmp	r4, #0
  402a8c:	0a000000 	beq	402a94 <dR>
  402a90:	eafffff6 	b	402a70 <upOpt>

00402a94 <dR>:
  402a94:	ebffffc9 	bl	4029c0 <_ReadSNES>
  402a98:	e59f52bc 	ldr	r5, [pc, #700]	; 402d5c <APress+0x4>
  402a9c:	e5d54009 	ldrb	r4, [r5, #9]
  402aa0:	e3540000 	cmp	r4, #0
  402aa4:	e5d54005 	ldrb	r4, [r5, #5]
  402aa8:	e3540000 	cmp	r4, #0
  402aac:	0affffef 	beq	402a70 <upOpt>
  402ab0:	eafffff7 	b	402a94 <dR>

00402ab4 <JPUPress>:
  402ab4:	e92d47f0 	push	{r4, r5, r6, r7, r8, r9, sl, lr}
  402ab8:	e59f5298 	ldr	r5, [pc, #664]	; 402d58 <APress>
  402abc:	e5954000 	ldr	r4, [r5]
  402ac0:	e5957004 	ldr	r7, [r5, #4]
  402ac4:	e1a06007 	mov	r6, r7
  402ac8:	e24780d8 	sub	r8, r7, #216	; 0xd8

00402acc <jumpup>:
  402acc:	e2466018 	sub	r6, r6, #24
  402ad0:	ebfffb7b 	bl	4018c4 <clearMario>
  402ad4:	e5856004 	str	r6, [r5, #4]
  402ad8:	ebfffb62 	bl	401868 <drawMario>
  402adc:	e59f127c 	ldr	r1, [pc, #636]	; 402d60 <APress+0x8>
  402ae0:	e5911000 	ldr	r1, [r1]
  402ae4:	e3510001 	cmp	r1, #1
  402ae8:	ebfff9e8 	bl	401290 <Detect1>
  402aec:	e350000d 	cmp	r0, #13
  402af0:	0a00000a 	beq	402b20 <jumpdown>
  402af4:	ebffffb1 	bl	4029c0 <_ReadSNES>
  402af8:	e59f925c 	ldr	r9, [pc, #604]	; 402d5c <APress+0x4>
  402afc:	e5d9a007 	ldrb	sl, [r9, #7]
  402b00:	e35a0000 	cmp	sl, #0
  402b04:	0b000021 	bleq	402b90 <UpRightPress>
  402b08:	e59f924c 	ldr	r9, [pc, #588]	; 402d5c <APress+0x4>
  402b0c:	e5d9a006 	ldrb	sl, [r9, #6]
  402b10:	e35a0000 	cmp	sl, #0
  402b14:	0b00003b 	bleq	402c08 <UpLeftPress>
  402b18:	e1560008 	cmp	r6, r8
  402b1c:	aaffffea 	bge	402acc <jumpup>

00402b20 <jumpdown>:
  402b20:	e59f023c 	ldr	r0, [pc, #572]	; 402d64 <APress+0xc>
  402b24:	e5900000 	ldr	r0, [r0]
  402b28:	e3500001 	cmp	r0, #1
  402b2c:	0a000015 	beq	402b88 <downex>
  402b30:	e2866018 	add	r6, r6, #24
  402b34:	ebfffb62 	bl	4018c4 <clearMario>
  402b38:	e5856004 	str	r6, [r5, #4]
  402b3c:	ebfffb49 	bl	401868 <drawMario>
  402b40:	e59f1218 	ldr	r1, [pc, #536]	; 402d60 <APress+0x8>
  402b44:	e5911000 	ldr	r1, [r1]
  402b48:	e3510001 	cmp	r1, #1
  402b4c:	ebfff9cf 	bl	401290 <Detect1>
  402b50:	e350000d 	cmp	r0, #13
  402b54:	0afffff1 	beq	402b20 <jumpdown>
  402b58:	ebffff98 	bl	4029c0 <_ReadSNES>
  402b5c:	e59f91f8 	ldr	r9, [pc, #504]	; 402d5c <APress+0x4>
  402b60:	e5d9a007 	ldrb	sl, [r9, #7]
  402b64:	e35a0000 	cmp	sl, #0
  402b68:	0b000008 	bleq	402b90 <UpRightPress>
  402b6c:	e59f91e8 	ldr	r9, [pc, #488]	; 402d5c <APress+0x4>
  402b70:	e5d9a006 	ldrb	sl, [r9, #6]
  402b74:	e35a0000 	cmp	sl, #0
  402b78:	0b000022 	bleq	402c08 <UpLeftPress>
  402b7c:	e59f01e4 	ldr	r0, [pc, #484]	; 402d68 <APress+0x10>
  402b80:	e1560000 	cmp	r6, r0
  402b84:	baffffe5 	blt	402b20 <jumpdown>

00402b88 <downex>:
  402b88:	e8bd47f0 	pop	{r4, r5, r6, r7, r8, r9, sl, lr}
  402b8c:	e12fff1e 	bx	lr

00402b90 <UpRightPress>:
  402b90:	e92d47f0 	push	{r4, r5, r6, r7, r8, r9, sl, lr}
  402b94:	e59f51bc 	ldr	r5, [pc, #444]	; 402d58 <APress>
  402b98:	e5954000 	ldr	r4, [r5]
  402b9c:	e3a07ff5 	mov	r7, #980	; 0x3d4
  402ba0:	e284600a 	add	r6, r4, #10
  402ba4:	e1560007 	cmp	r6, r7
  402ba8:	ba000004 	blt	402bc0 <UdrawR>
  402bac:	aa00000b 	bge	402be0 <UscreenR>
  402bb0:	e59f71b4 	ldr	r7, [pc, #436]	; 402d6c <APress+0x14>
  402bb4:	e1560007 	cmp	r6, r7
  402bb8:	ba000000 	blt	402bc0 <UdrawR>
  402bbc:	0a000007 	beq	402be0 <UscreenR>

00402bc0 <UdrawR>:
  402bc0:	ebfffb3f 	bl	4018c4 <clearMario>
  402bc4:	e5856000 	str	r6, [r5]
  402bc8:	e59f1190 	ldr	r1, [pc, #400]	; 402d60 <APress+0x8>
  402bcc:	e5911000 	ldr	r1, [r1]
  402bd0:	e3510001 	cmp	r1, #1
  402bd4:	ebfff9ad 	bl	401290 <Detect1>
  402bd8:	ebfffb22 	bl	401868 <drawMario>
  402bdc:	ea000007 	b	402c00 <UdoneR>

00402be0 <UscreenR>:
  402be0:	ebfffc17 	bl	401c44 <updateScreenRight>
  402be4:	ebfffb36 	bl	4018c4 <clearMario>
  402be8:	e59f5168 	ldr	r5, [pc, #360]	; 402d58 <APress>
  402bec:	e3a0404b 	mov	r4, #75	; 0x4b
  402bf0:	e59f6170 	ldr	r6, [pc, #368]	; 402d68 <APress+0x10>
  402bf4:	e5854000 	str	r4, [r5]
  402bf8:	e5856004 	str	r6, [r5, #4]
  402bfc:	ebfffb19 	bl	401868 <drawMario>

00402c00 <UdoneR>:
  402c00:	e8bd47f0 	pop	{r4, r5, r6, r7, r8, r9, sl, lr}
  402c04:	e1a0f00e 	mov	pc, lr

00402c08 <UpLeftPress>:
  402c08:	e92d47f0 	push	{r4, r5, r6, r7, r8, r9, sl, lr}
  402c0c:	e59f5144 	ldr	r5, [pc, #324]	; 402d58 <APress>
  402c10:	e5954000 	ldr	r4, [r5]
  402c14:	e3a0704b 	mov	r7, #75	; 0x4b
  402c18:	e244600a 	sub	r6, r4, #10
  402c1c:	e3560000 	cmp	r6, #0
  402c20:	ca000000 	bgt	402c28 <UdrawL>
  402c24:	da000007 	ble	402c48 <UscreenL>

00402c28 <UdrawL>:
  402c28:	ebfffb25 	bl	4018c4 <clearMario>
  402c2c:	e5856000 	str	r6, [r5]
  402c30:	e59f1128 	ldr	r1, [pc, #296]	; 402d60 <APress+0x8>
  402c34:	e5911000 	ldr	r1, [r1]
  402c38:	e3510001 	cmp	r1, #1
  402c3c:	ebfff993 	bl	401290 <Detect1>
  402c40:	ebfffb08 	bl	401868 <drawMario>
  402c44:	ea000007 	b	402c68 <Udonel>

00402c48 <UscreenL>:
  402c48:	ebfffc06 	bl	401c68 <updateScreenLeft>
  402c4c:	ebfffb1c 	bl	4018c4 <clearMario>
  402c50:	e59f5100 	ldr	r5, [pc, #256]	; 402d58 <APress>
  402c54:	e59f4114 	ldr	r4, [pc, #276]	; 402d70 <APress+0x18>
  402c58:	e59f6108 	ldr	r6, [pc, #264]	; 402d68 <APress+0x10>
  402c5c:	e5854000 	str	r4, [r5]
  402c60:	e5856004 	str	r6, [r5, #4]
  402c64:	ebfffaff 	bl	401868 <drawMario>

00402c68 <Udonel>:
  402c68:	e8bd47f0 	pop	{r4, r5, r6, r7, r8, r9, sl, lr}
  402c6c:	e1a0f00e 	mov	pc, lr

00402c70 <JPLPress>:
  402c70:	e92d47f0 	push	{r4, r5, r6, r7, r8, r9, sl, lr}
  402c74:	e59f50dc 	ldr	r5, [pc, #220]	; 402d58 <APress>
  402c78:	e5954000 	ldr	r4, [r5]
  402c7c:	e3a0704b 	mov	r7, #75	; 0x4b
  402c80:	e244600f 	sub	r6, r4, #15
  402c84:	e3560000 	cmp	r6, #0
  402c88:	ca000000 	bgt	402c90 <drawL>
  402c8c:	da000007 	ble	402cb0 <screenL>

00402c90 <drawL>:
  402c90:	ebfffb0b 	bl	4018c4 <clearMario>
  402c94:	e5856000 	str	r6, [r5]
  402c98:	ebfffaf2 	bl	401868 <drawMario>
  402c9c:	e3510001 	cmp	r1, #1
  402ca0:	ebfff97a 	bl	401290 <Detect1>
  402ca4:	e350000d 	cmp	r0, #13
  402ca8:	0affff9c 	beq	402b20 <jumpdown>
  402cac:	ea000007 	b	402cd0 <donel>

00402cb0 <screenL>:
  402cb0:	ebfffbec 	bl	401c68 <updateScreenLeft>
  402cb4:	ebfffb02 	bl	4018c4 <clearMario>
  402cb8:	e59f5098 	ldr	r5, [pc, #152]	; 402d58 <APress>
  402cbc:	e59f40ac 	ldr	r4, [pc, #172]	; 402d70 <APress+0x18>
  402cc0:	e59f60a0 	ldr	r6, [pc, #160]	; 402d68 <APress+0x10>
  402cc4:	e5854000 	str	r4, [r5]
  402cc8:	e5856004 	str	r6, [r5, #4]
  402ccc:	ebfffae5 	bl	401868 <drawMario>

00402cd0 <donel>:
  402cd0:	e8bd47f0 	pop	{r4, r5, r6, r7, r8, r9, sl, lr}
  402cd4:	e12fff1e 	bx	lr

00402cd8 <JPRPress>:
  402cd8:	e92d47f0 	push	{r4, r5, r6, r7, r8, r9, sl, lr}
  402cdc:	e59f5074 	ldr	r5, [pc, #116]	; 402d58 <APress>
  402ce0:	e5954000 	ldr	r4, [r5]
  402ce4:	e3a07ff5 	mov	r7, #980	; 0x3d4
  402ce8:	e284600f 	add	r6, r4, #15
  402cec:	e1560007 	cmp	r6, r7
  402cf0:	ba000004 	blt	402d08 <drawR>
  402cf4:	aa00000d 	bge	402d30 <screenR>
  402cf8:	e59f706c 	ldr	r7, [pc, #108]	; 402d6c <APress+0x14>
  402cfc:	e1560007 	cmp	r6, r7
  402d00:	ba000000 	blt	402d08 <drawR>
  402d04:	0a000009 	beq	402d30 <screenR>

00402d08 <drawR>:
  402d08:	ebfffaed 	bl	4018c4 <clearMario>
  402d0c:	e5856000 	str	r6, [r5]
  402d10:	e59f1048 	ldr	r1, [pc, #72]	; 402d60 <APress+0x8>
  402d14:	e5911000 	ldr	r1, [r1]
  402d18:	e3510001 	cmp	r1, #1
  402d1c:	ebfff95b 	bl	401290 <Detect1>
  402d20:	e350000d 	cmp	r0, #13
  402d24:	0affff7d 	beq	402b20 <jumpdown>
  402d28:	ebffface 	bl	401868 <drawMario>
  402d2c:	ea000007 	b	402d50 <doneR>

00402d30 <screenR>:
  402d30:	ebfffbc3 	bl	401c44 <updateScreenRight>
  402d34:	ebfffae2 	bl	4018c4 <clearMario>
  402d38:	e59f5018 	ldr	r5, [pc, #24]	; 402d58 <APress>
  402d3c:	e3a0404b 	mov	r4, #75	; 0x4b
  402d40:	e59f6020 	ldr	r6, [pc, #32]	; 402d68 <APress+0x10>
  402d44:	e5854000 	str	r4, [r5]
  402d48:	e5856004 	str	r6, [r5, #4]
  402d4c:	ebfffac5 	bl	401868 <drawMario>

00402d50 <doneR>:
  402d50:	e8bd47f0 	pop	{r4, r5, r6, r7, r8, r9, sl, lr}
  402d54:	e12fff1e 	bx	lr

00402d58 <APress>:
  402d58:	00009110 	.word	0x00009110
  402d5c:	00009080 	.word	0x00009080
  402d60:	00009134 	.word	0x00009134
  402d64:	000091d0 	.word	0x000091d0
  402d68:	000001e7 	.word	0x000001e7
  402d6c:	00000807 	.word	0x00000807
  402d70:	000003b5 	.word	0x000003b5

00402d74 <GameLoop>:
  402d74:	e92d47f0 	push	{r4, r5, r6, r7, r8, r9, sl, lr}

00402d78 <GL>:
  402d78:	e3a07000 	mov	r7, #0
  402d7c:	ebffff0f 	bl	4029c0 <_ReadSNES>

00402d80 <loop>:
  402d80:	e357000f 	cmp	r7, #15
  402d84:	aafffffb 	bge	402d78 <GL>
  402d88:	e59f5018 	ldr	r5, [pc, #24]	; 402da8 <loop+0x28>
  402d8c:	e7d54007 	ldrb	r4, [r5, r7]
  402d90:	e2877001 	add	r7, r7, #1
  402d94:	e3540001 	cmp	r4, #1
  402d98:	0afffff8 	beq	402d80 <loop>
  402d9c:	ebf01499 	bl	8008 <_UpdateSprites>
  402da0:	e8bd47f0 	pop	{r4, r5, r6, r7, r8, r9, sl, lr}
  402da4:	e12fff1e 	bx	lr
  402da8:	00009080 	.word	0x00009080
